Archive member included because of file (symbol)

lib_mips/libmips.a(board.o)   cpu/mips/start.o (board_init_r)
net/libnet.a(net.o)           lib_mips/libmips.a(board.o) (copy_filename)
net/libnet.a(tftp.o)          net/libnet.a(net.o) (TftpStart)
net/libnet.a(bootp.o)         net/libnet.a(net.o) (BootpRequest)
net/libnet.a(rarp.o)          net/libnet.a(net.o) (RarpRequest)
net/libnet.a(eth.o)           net/libnet.a(net.o) (eth_get_dev)
net/libnet.a(nfs.o)           net/libnet.a(net.o) (NfsStart)
post/ingenic/libingenic_post.a(jz_post.o)
                              lib_mips/libmips.a(board.o) (post_reloc)
post/ingenic/libingenic_post.a(jz_tests.o)
                              post/ingenic/libingenic_post.a(jz_post.o) (post_list)
post/ingenic/libingenic_post.a(memory.o)
                              post/ingenic/libingenic_post.a(jz_tests.o) (memory_post_test)
common/libcommon.a(main.o)    lib_mips/libmips.a(board.o) (main_loop)
common/libcommon.a(cmd_autoscript.o)
                              (__u_boot_cmd_autoscr)
common/libcommon.a(cmd_bdinfo.o)
                              (__u_boot_cmd_bdinfo)
common/libcommon.a(cmd_boot.o)
                              (__u_boot_cmd_go)
common/libcommon.a(cmd_bootm.o)
                              common/libcommon.a(cmd_autoscript.o) (header)
common/libcommon.a(cmd_console.o)
                              (__u_boot_cmd_coninfo)
common/libcommon.a(cmd_diag.o)
                              (__u_boot_cmd_diag)
common/libcommon.a(cmd_flash.o)
                              (__u_boot_cmd_flinfo)
common/libcommon.a(cmd_itest.o)
                              (__u_boot_cmd_itest)
common/libcommon.a(cmd_load.o)
                              (__u_boot_cmd_loads)
common/libcommon.a(cmd_mem.o)
                              common/libcommon.a(cmd_itest.o) (cmd_get_data_size)
common/libcommon.a(cmd_misc.o)
                              (__u_boot_cmd_sleep)
common/libcommon.a(cmd_msc.o)
                              (__u_boot_cmd_msc)
common/libcommon.a(cmd_nand.o)
                              (__u_boot_cmd_nand)
common/libcommon.a(cmd_net.o)
                              (__u_boot_cmd_bootp)
common/libcommon.a(cmd_nvedit.o)
                              lib_mips/libmips.a(board.o) (getenv_r)
common/libcommon.a(cmd_ftest.o)
                              (__u_boot_cmd_fnand)
common/libcommon.a(command.o)
                              common/libcommon.a(main.o) (find_cmd)
common/libcommon.a(console.o)
                              lib_mips/libmips.a(board.o) (printf)
common/libcommon.a(devices.o)
                              common/libcommon.a(cmd_console.o) (devlist)
common/libcommon.a(dlmalloc.o)
                              lib_mips/libmips.a(board.o) (malloc_bin_reloc)
common/libcommon.a(env_common.o)
                              common/libcommon.a(cmd_nvedit.o) (env_get_addr)
common/libcommon.a(env_msc.o)
                              common/libcommon.a(env_common.o) (env_get_char_spec)
common/libcommon.a(exports.o)
                              lib_mips/libmips.a(board.o) (jumptable_init)
common/libcommon.a(flash.o)   common/libcommon.a(cmd_load.o) (addr2info)
common/libcommon.a(lcd.o)     lib_mips/libmips.a(board.o) (lcd_setmem)
common/libcommon.a(lists.o)   common/libcommon.a(cmd_console.o) (ListGetPtrToItem)
common/libcommon.a(s_record.o)
                              common/libcommon.a(cmd_load.o) (srec_decode)
common/libcommon.a(xyzModem.o)
                              common/libcommon.a(cmd_load.o) (xyzModem_error)
common/libcommon.a(crc16.o)   common/libcommon.a(xyzModem.o) (cyg_crc16)
lib_generic/libgeneric.a(crc32.o)
                              common/libcommon.a(cmd_autoscript.o) (crc32)
lib_generic/libgeneric.a(display_options.o)
                              lib_mips/libmips.a(board.o) (print_size)
lib_generic/libgeneric.a(string.o)
                              net/libnet.a(nfs.o) (strcat)
lib_generic/libgeneric.a(vsprintf.o)
                              lib_mips/libmips.a(board.o) (simple_strtoul)
lib_generic/libgeneric.a(zlib.o)
                              common/libcommon.a(cmd_bootm.o) (inflateEnd)
lib_generic/libgeneric.a(ctype.o)
                              lib_generic/libgeneric.a(vsprintf.o) (_ctype)
board/mensa/libmensa.a(mensa.o)
                              lib_mips/libmips.a(board.o) (checkboard)
board/mensa/libmensa.a(flash.o)
                              common/libcommon.a(flash.o) (write_buff)
cpu/mips/libmips.a(jz_serial.o)
                              common/libcommon.a(cmd_load.o) (serial_setbrg)
cpu/mips/libmips.a(cpu.o)     common/libcommon.a(cmd_load.o) (flush_cache)
cpu/mips/libmips.a(interrupts.o)
                              common/libcommon.a(cmd_bootm.o) (enable_interrupts)
cpu/mips/libmips.a(jz4775.o)  lib_mips/libmips.a(board.o) (timer_init)
cpu/mips/libmips.a(jz4775_nand.o)
                              common/libcommon.a(cmd_nand.o) (board_nand_select_device)
cpu/mips/libmips.a(jz4775_eth.o)
                              net/libnet.a(eth.o) (jz_enet_initialize)
cpu/mips/libmips.a(synopGMAC_Dev.o)
                              cpu/mips/libmips.a(jz4775_eth.o) (synopGMAC_wd_enable)
cpu/mips/libmips.a(jz4775_ddr.o)
                              lib_mips/libmips.a(board.o) (initdram)
cpu/mips/libmips.a(jz4775_lcd.o)
                              common/libcommon.a(lcd.o) (lcd_ctrl_init)
cpu/mips/libmips.a(jz_ddr3_init.o)
                              cpu/mips/libmips.a(jz4775_ddr.o) (ddr_cfg_init)
lib_mips/libmips.a(mips_linux.o)
                              common/libcommon.a(cmd_bootm.o) (do_bootm_linux)
drivers/nand/libnand.a(nand.o)
                              common/libcommon.a(cmd_nand.o) (nand_info)
drivers/nand/libnand.a(nand_util.o)
                              common/libcommon.a(cmd_nand.o) (nand_lock)
drivers/nand/libnand.a(nand_base_jz4775.o)
                              common/libcommon.a(cmd_nand.o) (nand_read_raw)
drivers/nand/libnand.a(nand_ids.o)
                              drivers/nand/libnand.a(nand_base_jz4775.o) (get_flash_num)
drivers/nand/libnand.a(nand_ecc.o)
                              drivers/nand/libnand.a(nand_base_jz4775.o) (nand_calculate_ecc)
drivers/nand/libnand.a(nand_bbt.o)
                              drivers/nand/libnand.a(nand_base_jz4775.o) (nand_isbad_bbt)
/usr/local/mips-tools/mipseltools-gcc412-glibc261/bin/../lib/gcc/mipsel-linux/4.1.2/libgcc.a(_udivdi3.o)
                              drivers/nand/libnand.a(nand_util.o) (__udivdi3)
/usr/local/mips-tools/mipseltools-gcc412-glibc261/bin/../lib/gcc/mipsel-linux/4.1.2/libgcc.a(_clz.o)
                              /usr/local/mips-tools/mipseltools-gcc412-glibc261/bin/../lib/gcc/mipsel-linux/4.1.2/libgcc.a(_udivdi3.o) (__clz_tab)

分配公共符号
公共符号            大小              文件

dp_last_size        0x4               common/libcommon.a(cmd_mem.o)
console_buffer      0x100             common/libcommon.a(main.o)
NetArpWaitTry       0x4               net/libnet.a(net.o)
NetArpWaitPacketMAC
                    0x4               net/libnet.a(net.o)
flash_info          0x28c             board/mensa/libmensa.a(flash.o)
NetOurEther         0x6               net/libnet.a(net.o)
lcd_console_address
                    0x4               cpu/mips/libmips.a(jz4775_lcd.o)
NetOurIP            0x4               net/libnet.a(net.o)
NetPingIP           0x4               net/libnet.a(net.o)
NetServerIP         0x4               net/libnet.a(net.o)
monitor_flash_len   0x4               lib_mips/libmips.a(board.o)
___strtok           0x4               lib_generic/libgeneric.a(string.o)
NetArpWaitTxPacketSize
                    0x4               net/libnet.a(net.o)
NetArpWaitReplyIP   0x4               net/libnet.a(net.o)
NetRxPackets        0x40              net/libnet.a(net.o)
NetArpWaitTxPacket  0x4               net/libnet.a(net.o)
NetArpWaitPacketIP  0x4               net/libnet.a(net.o)
lcd_color_fg        0x4               cpu/mips/libmips.a(jz4775_lcd.o)
NetState            0x4               net/libnet.a(net.o)
BootpTry            0x4               net/libnet.a(bootp.o)
nand_info           0x10d0            drivers/nand/libnand.a(nand.o)
BootFile            0x80              net/libnet.a(net.o)
lcd_line_length     0x4               cpu/mips/libmips.a(jz4775_lcd.o)
dp_last_addr        0x4               common/libcommon.a(cmd_mem.o)
his_pad_char        0x1               common/libcommon.a(cmd_load.o)
console_col         0x2               cpu/mips/libmips.a(jz4775_lcd.o)
os_data_count       0x4               common/libcommon.a(cmd_load.o)
RarpTry             0x4               net/libnet.a(rarp.o)
mm_last_size        0x4               common/libcommon.a(cmd_mem.o)
os_data_init        0x4               common/libcommon.a(cmd_load.o)
mm_last_addr        0x4               common/libcommon.a(cmd_mem.o)
NetIPID             0x4               net/libnet.a(net.o)
send_ptr            0x4               common/libcommon.a(cmd_load.o)
lcd_base            0x4               cpu/mips/libmips.a(jz4775_lcd.o)
BootpID             0x4               net/libnet.a(bootp.o)
NetRxPkt            0x4               net/libnet.a(net.o)
os_data_header      0x20              common/libcommon.a(cmd_load.o)
os_data_char        0x4               common/libcommon.a(cmd_load.o)
NetArpWaitPacketBuf
                    0x620             net/libnet.a(net.o)
console_row         0x2               cpu/mips/libmips.a(jz4775_lcd.o)
his_eol             0x1               common/libcommon.a(cmd_load.o)
header              0x40              common/libcommon.a(cmd_bootm.o)
NetRxPktLen         0x4               net/libnet.a(net.o)
his_quote           0x1               common/libcommon.a(cmd_load.o)
NetBootFileXferSize
                    0x4               net/libnet.a(net.o)
PktBuf              0x6620            net/libnet.a(net.o)
send_parms          0x14              common/libcommon.a(cmd_load.o)
lcd_color_bg        0x4               cpu/mips/libmips.a(jz4775_lcd.o)
his_pad_count       0x4               common/libcommon.a(cmd_load.o)
NetArpWaitTimerStart
                    0x4               net/libnet.a(net.o)

舍弃的输入节

 .reginfo       0x0000000000000000        0x0 lib_mips/libmips.a(board.o)
 .reginfo       0x0000000000000000        0x0 net/libnet.a(net.o)
 .reginfo       0x0000000000000000        0x0 net/libnet.a(tftp.o)
 .reginfo       0x0000000000000000        0x0 net/libnet.a(bootp.o)
 .reginfo       0x0000000000000000        0x0 net/libnet.a(rarp.o)
 .reginfo       0x0000000000000000        0x0 net/libnet.a(eth.o)
 .reginfo       0x0000000000000000        0x0 net/libnet.a(nfs.o)
 .reginfo       0x0000000000000000        0x0 post/ingenic/libingenic_post.a(jz_post.o)
 .reginfo       0x0000000000000000        0x0 post/ingenic/libingenic_post.a(jz_tests.o)
 .reginfo       0x0000000000000000        0x0 post/ingenic/libingenic_post.a(memory.o)
 .reginfo       0x0000000000000000        0x0 common/libcommon.a(main.o)
 .reginfo       0x0000000000000000        0x0 common/libcommon.a(cmd_autoscript.o)
 .reginfo       0x0000000000000000        0x0 common/libcommon.a(cmd_bdinfo.o)
 .reginfo       0x0000000000000000        0x0 common/libcommon.a(cmd_boot.o)
 .reginfo       0x0000000000000000        0x0 common/libcommon.a(cmd_bootm.o)
 .reginfo       0x0000000000000000        0x0 common/libcommon.a(cmd_console.o)
 .reginfo       0x0000000000000000        0x0 common/libcommon.a(cmd_diag.o)
 .reginfo       0x0000000000000000        0x0 common/libcommon.a(cmd_flash.o)
 .reginfo       0x0000000000000000        0x0 common/libcommon.a(cmd_itest.o)
 .reginfo       0x0000000000000000        0x0 common/libcommon.a(cmd_load.o)
 .reginfo       0x0000000000000000        0x0 common/libcommon.a(cmd_mem.o)
 .reginfo       0x0000000000000000        0x0 common/libcommon.a(cmd_misc.o)
 .reginfo       0x0000000000000000        0x0 common/libcommon.a(cmd_msc.o)
 .reginfo       0x0000000000000000        0x0 common/libcommon.a(cmd_nand.o)
 .reginfo       0x0000000000000000        0x0 common/libcommon.a(cmd_net.o)
 .reginfo       0x0000000000000000        0x0 common/libcommon.a(cmd_nvedit.o)
 .reginfo       0x0000000000000000        0x0 common/libcommon.a(cmd_ftest.o)
 .reginfo       0x0000000000000000        0x0 common/libcommon.a(command.o)
 .reginfo       0x0000000000000000        0x0 common/libcommon.a(console.o)
 .reginfo       0x0000000000000000        0x0 common/libcommon.a(devices.o)
 .reginfo       0x0000000000000000        0x0 common/libcommon.a(dlmalloc.o)
 .reginfo       0x0000000000000000        0x0 common/libcommon.a(env_common.o)
 .reginfo       0x0000000000000000        0x0 common/libcommon.a(env_msc.o)
 .reginfo       0x0000000000000000        0x0 common/libcommon.a(exports.o)
 .reginfo       0x0000000000000000        0x0 common/libcommon.a(flash.o)
 .reginfo       0x0000000000000000        0x0 common/libcommon.a(lcd.o)
 .reginfo       0x0000000000000000        0x0 common/libcommon.a(lists.o)
 .reginfo       0x0000000000000000        0x0 common/libcommon.a(s_record.o)
 .reginfo       0x0000000000000000        0x0 common/libcommon.a(xyzModem.o)
 .reginfo       0x0000000000000000        0x0 common/libcommon.a(crc16.o)
 .reginfo       0x0000000000000000        0x0 lib_generic/libgeneric.a(crc32.o)
 .reginfo       0x0000000000000000        0x0 lib_generic/libgeneric.a(display_options.o)
 .reginfo       0x0000000000000000        0x0 lib_generic/libgeneric.a(string.o)
 .reginfo       0x0000000000000000        0x0 lib_generic/libgeneric.a(vsprintf.o)
 .reginfo       0x0000000000000000        0x0 lib_generic/libgeneric.a(zlib.o)
 .reginfo       0x0000000000000000        0x0 lib_generic/libgeneric.a(ctype.o)
 .reginfo       0x0000000000000000        0x0 board/mensa/libmensa.a(mensa.o)
 .reginfo       0x0000000000000000        0x0 board/mensa/libmensa.a(flash.o)
 .reginfo       0x0000000000000000        0x0 cpu/mips/libmips.a(jz_serial.o)
 .reginfo       0x0000000000000000        0x0 cpu/mips/libmips.a(cpu.o)
 .reginfo       0x0000000000000000        0x0 cpu/mips/libmips.a(interrupts.o)
 .reginfo       0x0000000000000000        0x0 cpu/mips/libmips.a(jz4775.o)
 .reginfo       0x0000000000000000        0x0 cpu/mips/libmips.a(jz4775_nand.o)
 .reginfo       0x0000000000000000        0x0 cpu/mips/libmips.a(jz4775_eth.o)
 .reginfo       0x0000000000000000        0x0 cpu/mips/libmips.a(synopGMAC_Dev.o)
 .reginfo       0x0000000000000000        0x0 cpu/mips/libmips.a(jz4775_ddr.o)
 .reginfo       0x0000000000000000        0x0 cpu/mips/libmips.a(jz4775_lcd.o)
 .reginfo       0x0000000000000000        0x0 cpu/mips/libmips.a(jz_ddr3_init.o)
 .reginfo       0x0000000000000000        0x0 lib_mips/libmips.a(mips_linux.o)
 .reginfo       0x0000000000000000        0x0 drivers/nand/libnand.a(nand.o)
 .reginfo       0x0000000000000000        0x0 drivers/nand/libnand.a(nand_util.o)
 .reginfo       0x0000000000000000        0x0 drivers/nand/libnand.a(nand_base_jz4775.o)
 .reginfo       0x0000000000000000        0x0 drivers/nand/libnand.a(nand_ids.o)
 .reginfo       0x0000000000000000        0x0 drivers/nand/libnand.a(nand_ecc.o)
 .reginfo       0x0000000000000000        0x0 drivers/nand/libnand.a(nand_bbt.o)
 .reginfo       0x0000000000000000        0x0 /usr/local/mips-tools/mipseltools-gcc412-glibc261/bin/../lib/gcc/mipsel-linux/4.1.2/libgcc.a(_udivdi3.o)
 .reginfo       0x0000000000000000        0x0 /usr/local/mips-tools/mipseltools-gcc412-glibc261/bin/../lib/gcc/mipsel-linux/4.1.2/libgcc.a(_clz.o)

内存配置

名称           来源             长度             属性
*default*        0x0000000000000000 0xffffffffffffffff

链结器命令稿和内存映射

                0x0000000000000000                . = 0x0
                0x0000000000000000                . = ALIGN (0x4)

.text           0x0000000080100200    0x30ce0
 *(.text)
 .text          0x0000000080100200      0x1b0 cpu/mips/start.o
                0x0000000080100294                relocate_code
                0x0000000080100200                _start
 .text          0x00000000801003b0      0x640 lib_mips/libmips.a(board.o)
                0x0000000080100400                hang
                0x00000000801005e4                board_init_r
                0x00000000801003b0                sbrk
                0x000000008010089c                board_init_f
 .text          0x00000000801009f0     0x1e00 net/libnet.a(net.o)
                0x0000000080100cb0                getenv_IPaddr
                0x0000000080100a70                NetCksumOk
                0x0000000080101410                NetSetTimeout
                0x0000000080100ab0                copy_filename
                0x00000000801020a4                NetEthHdrSize
                0x0000000080100cec                ip_to_string
                0x0000000080101864                ArpTimeoutCheck
                0x0000000080102158                NetReceive
                0x0000000080100bdc                string_to_ip
                0x0000000080101484                NetSendUDPPacket
                0x0000000080100d70                print_IPaddr
                0x0000000080100f3c                NetSetEther
                0x0000000080101938                NetLoop
                0x0000000080101098                ArpRequest
                0x000000008010202c                VLAN_to_string
                0x0000000080100b98                getenv_VLAN
                0x0000000080100a2c                NetCksum
                0x0000000080100dc0                NetSetIP
                0x0000000080100b20                string_to_VLAN
                0x00000000801016c4                NetStartAgain
                0x0000000080100a14                NetSetHandler
                0x0000000080101224                PingSend
                0x0000000080101080                NetSendPacket
 .text          0x00000000801027f0      0x970 net/libnet.a(tftp.o)
                0x0000000080102a04                TftpStart
 .text          0x0000000080103160      0xda0 net/libnet.a(bootp.o)
                0x0000000080103858                DhcpRequest
                0x0000000080103584                BootpRequest
 .text          0x0000000080103f00      0x270 net/libnet.a(rarp.o)
                0x0000000080103f00                RarpRequest
 .text          0x0000000080104170      0xa40 net/libnet.a(eth.o)
                0x0000000080104668                eth_get_dev_by_name
                0x00000000801041e0                eth_halt
                0x00000000801046d8                eth_register
                0x0000000080104170                eth_get_dev
                0x00000000801043a4                eth_try_another
                0x0000000080104554                eth_set_enetaddr
                0x00000000801047d0                eth_initialize
                0x00000000801042d8                eth_set_current
                0x0000000080104274                eth_rx
                0x0000000080104188                eth_get_dev_index
                0x0000000080104490                eth_init
                0x00000000801042a8                eth_get_name
                0x0000000080104238                eth_send
 .text          0x0000000080104bb0     0x1500 net/libnet.a(nfs.o)
                0x0000000080105d54                NfsStart
 .text          0x00000000801060b0      0x5f0 post/ingenic/libingenic_post.a(jz_post.o)
                0x0000000080106148                post_reloc
                0x00000000801060b0                post_init_f
                0x0000000080106540                post_run
                0x00000000801063e4                post_info
                0x0000000080106244                post_log
 .text          0x00000000801066a0        0x0 post/ingenic/libingenic_post.a(jz_tests.o)
 .text          0x00000000801066a0     0x1320 post/ingenic/libingenic_post.a(memory.o)
                0x00000000801066b4                map_mem_tlb
                0x0000000080107144                memory_post_test
                0x00000000801067e4                mmu_dump_tlb
 .text          0x00000000801079c0      0xde0 common/libcommon.a(main.o)
                0x00000000801079c0                run_command
                0x0000000080107f88                do_run
                0x000000008010823c                readline
                0x0000000080108570                main_loop
 .text          0x00000000801087a0      0x3b0 common/libcommon.a(cmd_autoscript.o)
                0x0000000080108ad0                do_autoscript
                0x00000000801087a0                autoscript
 .text          0x0000000080108b50      0x1e0 common/libcommon.a(cmd_bdinfo.o)
                0x0000000080108b78                do_bdinfo
 .text          0x0000000080108d30      0x100 common/libcommon.a(cmd_boot.o)
                0x0000000080108d30                do_go
 .text          0x0000000080108e30     0x1560 common/libcommon.a(cmd_bootm.o)
                0x0000000080109080                print_image_hdr
                0x000000008010983c                do_bootd
                0x0000000080108e30                gunzip
                0x0000000080109ac0                do_bootm
                0x0000000080109764                do_iminfo
 .text          0x000000008010a390      0x180 common/libcommon.a(cmd_console.o)
                0x000000008010a390                do_coninfo
 .text          0x000000008010a510      0x1c0 common/libcommon.a(cmd_diag.o)
                0x000000008010a510                do_diag
 .text          0x000000008010a6d0      0xf60 common/libcommon.a(cmd_flash.o)
                0x000000008010ae7c                do_flinfo
                0x000000008010ad94                flash_sect_erase
                0x000000008010b1c8                do_protect
                0x000000008010af3c                do_flerase
                0x000000008010a8cc                flash_sect_protect
 .text          0x000000008010b630      0x490 common/libcommon.a(cmd_itest.o)
                0x000000008010b710                binary_test
                0x000000008010b9a0                do_itest
 .text          0x000000008010bac0     0x15b0 common/libcommon.a(cmd_load.o)
                0x000000008010bbb8                k_data_init
                0x000000008010bd88                s1_sendpacket
                0x000000008010bde4                handle_send_packet
                0x000000008010bc28                k_data_restore
                0x000000008010c0d4                send_nack
                0x000000008010c238                do_load_serial_bin
                0x000000008010bc78                k_data_char
                0x000000008010bafc                chk1
                0x000000008010bbd8                k_data_save
                0x000000008010bac0                ktrans
                0x000000008010bd20                send_pad
                0x000000008010c160                send_ack
                0x000000008010caf0                do_load_serial
 .text          0x000000008010d070     0x1300 common/libcommon.a(cmd_mem.o)
                0x000000008010d070                do_mem_base
                0x000000008010dea8                do_mem_mw
                0x000000008010d104                do_mem_crc
                0x000000008010d7e4                do_mem_nm
                0x000000008010d82c                do_mem_mm
                0x000000008010da24                do_mem_cp
                0x000000008010d25c                do_mem_mtest
                0x000000008010dc40                do_mem_cmp
                0x000000008010d478                cmd_get_data_size
                0x000000008010d874                do_mem_loop
                0x000000008010e024                do_mem_md
 .text          0x000000008010e370      0x110 common/libcommon.a(cmd_misc.o)
                0x000000008010e370                do_sleep
 .text          0x000000008010e480      0xe20 common/libcommon.a(cmd_msc.o)
                0x000000008010e5dc                msc_read
                0x000000008010ed64                msc_write
                0x000000008010ef94                do_msc
 .text          0x000000008010f2a0     0x1ec0 common/libcommon.a(cmd_nand.o)
                0x000000008010f2a0                nand_write_yaffs
                0x000000008010f81c                do_nandboot
                0x000000008010fe30                do_nand
 .text          0x0000000080111160      0x5f0 common/libcommon.a(cmd_net.o)
                0x00000000801116ec                do_rarpb
                0x0000000080111160                do_ping
                0x000000008011170c                do_tftpb
                0x00000000801116cc                do_dhcp
                0x000000008011172c                do_bootp
                0x00000000801116ac                do_nfs
 .text          0x0000000080111750     0x1160 common/libcommon.a(cmd_nvedit.o)
                0x00000000801119bc                getenv
                0x0000000080111a94                _do_setenv
                0x0000000080112274                do_askenv
                0x0000000080111850                getenv_r
                0x000000008011259c                do_printenv
                0x0000000080112548                setenv
                0x0000000080111968                do_saveenv
                0x00000000801124d4                do_setenv
 .text          0x00000000801128b0      0x820 common/libcommon.a(cmd_ftest.o)
                0x0000000080112a8c                do_nand_test
 .text          0x00000000801130d0      0x570 common/libcommon.a(command.o)
                0x00000000801131e8                do_echo
                0x00000000801130d0                find_cmd
                0x0000000080113324                do_help
                0x00000000801135fc                do_version
 .text          0x0000000080113640      0x8e0 common/libcommon.a(console.o)
                0x0000000080113b1c                console_init_r
                0x0000000080113ab0                printf
                0x0000000080113878                console_assign
                0x0000000080113e54                getc
                0x0000000080113a1c                puts
                0x0000000080113858                dbg
                0x0000000080113d68                serial_printf
                0x0000000080113750                ftstc
                0x00000000801139a8                fprintf
                0x0000000080113e18                tstc
                0x0000000080113a58                vprintf
                0x0000000080113e90                ctrlc
                0x0000000080113dd4                putc
                0x000000008011380c                disable_ctrlc
                0x0000000080113718                fgetc
                0x0000000080113828                had_ctrlc
                0x0000000080113788                fputc
                0x0000000080113868                console_init_f
                0x0000000080113840                clear_ctrlc
                0x00000000801137cc                fputs
 .text          0x0000000080113f20      0x1b0 common/libcommon.a(devices.o)
                0x0000000080113f5c                device_register
                0x0000000080113f20                devices_done
                0x0000000080113fa0                devices_init
 .text          0x00000000801140d0     0x1670 common/libcommon.a(dlmalloc.o)
                0x00000000801145f0                malloc
                0x0000000080114f7c                pvalloc
                0x0000000080114fbc                calloc
                0x0000000080114114                malloc_usable_size
                0x00000000801150e8                realloc
                0x00000000801141fc                malloc_trim
                0x00000000801140d0                malloc_bin_reloc
                0x000000008011416c                mallopt
                0x0000000080114dc8                memalign
                0x00000000801145d8                cfree
                0x0000000080114fa0                valloc
                0x0000000080114324                free
 .text          0x0000000080115740      0x200 common/libcommon.a(env_common.o)
                0x0000000080115774                env_get_addr
                0x0000000080115848                env_relocate
                0x00000000801157f8                env_crc_update
                0x0000000080115740                env_get_char_memory
 .text          0x0000000080115940      0x1e0 common/libcommon.a(env_msc.o)
                0x0000000080115978                env_relocate_spec
                0x0000000080115aec                saveenv
                0x0000000080115940                env_get_char_spec
                0x0000000080115950                env_init
 .text          0x0000000080115b20       0xe0 common/libcommon.a(exports.o)
                0x0000000080115b30                jumptable_init
                0x0000000080115b28                get_version
 .text          0x0000000080115c00      0x430 common/libcommon.a(flash.o)
                0x0000000080115e54                flash_write
                0x0000000080115c00                flash_protect
                0x0000000080115ce4                addr2info
                0x0000000080115d40                flash_perror
 .text          0x0000000080116030      0x5e0 common/libcommon.a(lcd.o)
                0x0000000080116030                lcd_setmem
                0x0000000080116588                lcd_putc
                0x0000000080116138                bitmap_plot
                0x000000008011607c                show_boot_progress
                0x0000000080116424                drv_lcd_init
                0x00000000801165a4                lcd_puts
 .text          0x0000000080116610      0x650 common/libcommon.a(lists.o)
                0x0000000080116ab0                DisposeHandle
                0x0000000080116b0c                ListDispose
                0x00000000801167ec                ListInsertItems
                0x0000000080116618                ListSetAllocationPolicy
                0x0000000080116680                ListGetItemSize
                0x0000000080116674                ListGetDataPtr
                0x0000000080116b24                NewHandle
                0x000000008011670c                SetHandleSize
                0x0000000080116a98                ListInsertItem
                0x0000000080116610                GetHandleSize
                0x000000008011668c                ListNumItems
                0x0000000080116628                ListGetPtrToItem
                0x0000000080116be4                ListCreate
                0x0000000080116698                ListGetItems
 .text          0x0000000080116c60      0x3e0 common/libcommon.a(s_record.o)
                0x0000000080116d44                srec_decode
 .text          0x0000000080117040      0xef0 common/libcommon.a(xyzModem.o)
                0x00000000801171b8                xyzModem_error
                0x000000008011725c                xyzModem_stream_close
                0x00000000801172f0                CYGACC_COMM_IF_GETC_TIMEOUT
                0x0000000080117040                parse_num
                0x00000000801173f0                xyzModem_stream_terminate
                0x0000000080117cc0                xyzModem_stream_open
                0x00000000801172d4                CYGACC_COMM_IF_PUTC
                0x00000000801178fc                xyzModem_stream_read
 .text          0x0000000080117f30       0x70 common/libcommon.a(crc16.o)
                0x0000000080117f30                cyg_crc16
 .text          0x0000000080117fa0      0x2f0 lib_generic/libgeneric.a(crc32.o)
                0x0000000080117fa0                crc32
                0x0000000080118118                crc32_no_comp
 .text          0x0000000080118290      0x140 lib_generic/libgeneric.a(display_options.o)
                0x0000000080118384                display_options
                0x0000000080118290                print_size
 .text          0x00000000801183d0      0x6d0 lib_generic/libgeneric.a(string.o)
                0x0000000080118854                memmove
                0x0000000080118828                memcpy
                0x00000000801187a8                strswab
                0x0000000080118550                strnlen
                0x00000000801184d0                strrchr
                0x00000000801183d0                strcat
                0x00000000801189dc                memchr
                0x0000000080118914                strstr
                0x000000008011865c                strtok
                0x00000000801188b4                memcmp
                0x000000008011840c                strncat
                0x0000000080118a0c                strdup
                0x00000000801187f8                memset
                0x0000000080118740                strsep
                0x0000000080118594                strspn
                0x00000000801184a0                strlen
                0x0000000080118460                strchr
                0x00000000801185fc                strpbrk
 .text          0x0000000080118aa0      0xa00 lib_generic/libgeneric.a(vsprintf.o)
                0x0000000080118f58                vsprintf
                0x0000000080118bac                simple_strtol
                0x0000000080118ed0                panic
                0x000000008011945c                sprintf
                0x0000000080118aa0                simple_strtoul
 .text          0x00000000801194a0     0x3420 lib_generic/libgeneric.a(zlib.o)
                0x000000008011a74c                inflate
                0x000000008011a074                inflateInit2
                0x000000008011a5b4                inflateIncomp
                0x000000008011a22c                adler32
                0x0000000080119eb4                inflateReset
                0x0000000080119f34                inflateSync
                0x000000008011a214                inflateInit
                0x0000000080119de8                inflateEnd
 .text          0x000000008011c8c0        0x0 lib_generic/libgeneric.a(ctype.o)
 .text          0x000000008011c8c0      0x1e0 board/mensa/libmensa.a(mensa.o)
                0x000000008011c8c0                board_early_init
                0x000000008011c924                checkboard
 .text          0x000000008011caa0      0x740 board/mensa/libmensa.a(flash.o)
                0x000000008011ce2c                flash_erase
                0x000000008011d0a0                flash_init
                0x000000008011cc08                flash_print_info
                0x000000008011caa0                write_buff
 .text          0x000000008011d1e0      0x380 cpu/mips/libmips.a(jz_serial.o)
                0x000000008011d488                serial_put_dec
                0x000000008011d1e0                serial_setbrg
                0x000000008011d3f8                serial_put_hex
                0x000000008011d39c                serial_tstc
                0x000000008011d2d0                serial_putc
                0x000000008011d258                serial_init
                0x000000008011d348                serial_puts
                0x000000008011d3b0                serial_getc
 .text          0x000000008011d560      0x1d0 cpu/mips/libmips.a(cpu.o)
                0x000000008011d6a0                flush_cache_all
                0x000000008011d560                flush_cache
                0x000000008011d640                flush_icache_all
                0x000000008011d6d8                do_reset
                0x000000008011d67c                flush_dcache_all
                0x000000008011d608                write_one_tlb
 .text          0x000000008011d730       0x10 cpu/mips/libmips.a(interrupts.o)
                0x000000008011d738                disable_interrupts
                0x000000008011d730                enable_interrupts
 .text          0x000000008011d740      0x890 cpu/mips/libmips.a(jz4775.o)
                0x000000008011d9fc                set_timer
                0x000000008011da44                reset_timer
                0x000000008011d918                gpio_debug
                0x000000008011dcf0                get_tbclk
                0x000000008011dac8                get_timer
                0x000000008011da14                reset_timer_masked
                0x000000008011d8d8                core_voltage_regulate
                0x000000008011d984                timer_init
                0x000000008011da5c                get_timer_masked
                0x000000008011d740                jzmemset
                0x000000008011db08                udelay
                0x000000008011dcfc                jz_board_init
                0x000000008011dbfc                udelay_masked
                0x000000008011d824                mpll_init
                0x000000008011d7a4                apll_init
                0x000000008011dcb8                get_ticks
                0x000000008011d8e0                pll_init
 .text          0x000000008011dfd0      0x5d0 cpu/mips/libmips.a(jz4775_nand.o)
                0x000000008011e0a0                board_nand_select_device
                0x000000008011e244                board_nand_init
 .text          0x000000008011e5a0      0xf80 cpu/mips/libmips.a(jz4775_eth.o)
                0x000000008011e5a0                jz_enet_initialize
 .text          0x000000008011f520     0x2ba0 cpu/mips/libmips.a(synopGMAC_Dev.o)
                0x00000000801212bc                synopGMAC_read_mmc_tx_int_status
                0x000000008011f520                synopGMAC_wd_enable
                0x0000000080121b48                synopGMAC_TS_int_enable
                0x0000000080120e2c                synopGMAC_TS_mac_addr_filt_enable
                0x000000008012123c                synopGMAC_write_hash_table_low
                0x0000000080120fb4                synopGMAC_pmt_int_disable
                0x0000000080120f0c                synopGMAC_mmc_counters_set_selfclear
                0x000000008011fd6c                synopGMAC_ES_is_rx_checksum_bypassed
                0x000000008012104c                synopGMAC_tx_flow_control_enable
                0x0000000080120b78                synopGMAC_search_phy
                0x000000008011f7e0                synopGMAC_promisc_disable
                0x00000000801211b4                synopGMAC_retry_disable
                0x000000008011f9ac                synopGMAC_is_sof_in_rx_desc
                0x0000000080121d98                synopGMAC_TS_event_disable
                0x0000000080121814                synopGMAC_dma_bus_mode_init
                0x0000000080120c60                synopGMAC_attach
                0x0000000080120f24                synopGMAC_mmc_counters_stop
                0x00000000801218d8                synopGMAC_get_mdc_clk_div
                0x0000000080121138                synopGMAC_Hash_filter_only_enable
                0x0000000080121ba0                synopGMAC_disable_rx_Ipchecksum_offload
                0x0000000080121df0                synopGMAC_frame_burst_disable
                0x000000008012107c                synopGMAC_unicast_pause_frame_detect_enable
                0x0000000080121370                synopGMAC_mac_init
                0x000000008011f540                synopGMAC_jab_enable
                0x0000000080120e78                synopGMAC_rx_tcpip_chksum_drop_disable
                0x000000008011fa60                synopGMAC_is_exc_tx_collisions
                0x000000008011f888                synopGMAC_set_mac_addr
                0x0000000080121cb8                synopGMAC_disable_interrupt
                0x0000000080121ee8                synopGMAC_TS_timestamp_init
                0x0000000080122020                synopGMAC_TS_addend_update
                0x000000008011f7a8                synopGMAC_multicast_disable
                0x0000000080120e60                synopGMAC_TS_enable
                0x00000000801211cc                synopGMAC_loopback_on
                0x0000000080120d9c                synopGMAC_TS_pkt_snoop_ver2
                0x0000000080121bf4                synopGMAC_enable_mmc_tx_interrupt
                0x000000008011f834                synopGMAC_rx_flow_control_disable
                0x000000008011f57c                synopGMAC_frame_burst_enable
                0x0000000080121d0c                synopGMAC_TS_binary_rollover_enable
                0x000000008011f9cc                synopGMAC_is_da_filter_failed
                0x0000000080120864                synopGMAC_init_tx_rx_desc_queue
                0x000000008011f95c                synopGMAC_init_rx_desc_base
                0x0000000080120a54                synopGMAC_read_phy_reg
                0x0000000080120f6c                synopGMAC_magic_packet_enable
                0x0000000080121dd4                synopGMAC_rx_disable
                0x000000008011f818                synopGMAC_unicast_pause_frame_detect_disable
                0x000000008011fa04                synopGMAC_is_desc_valid
                0x0000000080120ec4                synopGMAC_disable_mmc_rx_interrupt
                0x000000008011f6ec                synopGMAC_rx_enable
                0x00000000801211e4                synopGMAC_rx_own_disable
                0x0000000080121120                synopGMAC_src_addr_filter_enable
                0x0000000080121b80                synopGMAC_rx_tcpip_chksum_drop_enable
                0x0000000080120eac                synopGMAC_disable_mmc_ipc_rx_interrupt
                0x0000000080121af8                synopGMAC_init_tx_desc_base
                0x0000000080121874                synopGMAC_read_version
                0x0000000080121304                synopGMAC_is_magic_packet_received
                0x000000008011fb20                synopGMAC_get_desc_data
                0x000000008011f5d4                synopGMAC_select_gmii
                0x000000008011fa90                synopGMAC_is_frame_dribbling_errors
                0x000000008011f76c                synopGMAC_set_pass_control
                0x000000008011f694                synopGMAC_pad_crc_strip_disable
                0x000000008011fd78                synopGMAC_ES_is_IP_payload_error
                0x0000000080120ffc                synopGMAC_tx_activate_flow_control
                0x0000000080121218                synopGMAC_set_mdc_clk_div
                0x0000000080120d84                synopGMAC_TS_digital_rollover_enable
                0x0000000080121e10                synopGMAC_reset
                0x00000000801212dc                synopGMAC_read_mmc_counter
                0x000000008011f9bc                synopGMAC_is_eof_in_rx_desc
                0x0000000080121318                synopGMAC_get_interrupt_mask
                0x000000008011fa48                synopGMAC_is_tx_carrier_error
                0x00000000801212f0                synopGMAC_is_wakeup_frame_received
                0x0000000080121914                synopGMAC_TS_subsecond_init
                0x0000000080120e14                synopGMAC_TS_master_enable
                0x000000008011fa84                synopGMAC_is_rx_crc
                0x00000000801210c4                synopGMAC_multicast_hash_filter_enable
                0x000000008011fa14                synopGMAC_is_desc_empty
                0x00000000801219a0                synopGMAC_disable_dma_tx
                0x000000008011f9f8                synopGMAC_get_rx_desc_frame_length
                0x000000008011fba8                synopGMAC_take_desc_ownership
                0x0000000080120dcc                synopGMAC_TS_IPV6_enable
                0x000000008011fdf0                synopGMAC_is_tx_payload_checksum_error
                0x0000000080121d7c                synopGMAC_TS_IPV4_disable
                0x000000008011f92c                synopGMAC_rx_desc_init_chain
                0x0000000080120ef4                synopGMAC_mmc_counters_disable_rollover
                0x000000008012126c                synopGMAC_TS_read_target_timestamp
                0x00000000801217dc                synopGMAC_pause_control
                0x0000000080121d44                synopGMAC_TS_ptp_over_ethernet_disable
                0x000000008011f6b0                synopGMAC_back_off_limit
                0x0000000080121f84                synopGMAC_TS_timestamp_update
                0x000000008011f5b4                synopGMAC_jumbo_frame_disable
                0x0000000080121ae4                synopGMAC_clear_interrupt
                0x000000008011f644                synopGMAC_set_full_duplex
                0x000000008011f7fc                synopGMAC_unicast_hash_filter_disable
                0x0000000080121c48                synopGMAC_mmc_counters_resume
                0x0000000080121984                synopGMAC_disable_dma_rx
                0x000000008011fa54                synopGMAC_get_tx_collision_count
                0x0000000080121c80                synopGMAC_power_down_disable
                0x0000000080120fcc                synopGMAC_tx_deactivate_flow_control
                0x0000000080121a0c                synopGMAC_disable_interrupt_all
                0x0000000080121928                synopGMAC_TS_set_clk_type
                0x0000000080121900                synopGMAC_TS_load_timestamp_higher_val
                0x000000008011fb00                synopGMAC_is_rx_desc_chained
                0x0000000080120e94                synopGMAC_enable_rx_chksum_offload
                0x000000008011f8e4                synopGMAC_rx_desc_init_ring
                0x000000008012125c                synopGMAC_dma_control_init
                0x000000008011f944                synopGMAC_tx_desc_init_chain
                0x000000008011f758                synopGMAC_dst_addr_filter_normal
                0x0000000080121184                synopGMAC_deferral_check_enable
                0x00000000801210dc                synopGMAC_multicast_enable
                0x00000000801210f4                synopGMAC_broadcast_disable
                0x000000008011f850                synopGMAC_tx_flow_control_disable
                0x0000000080121288                synopGMAC_TS_read_timestamp_higher_val
                0x0000000080121c9c                synopGMAC_pmt_int_enable
                0x00000000801200f4                synopGMAC_set_rx_qptr
                0x0000000080120d54                synopGMAC_TS_fine_update
                0x0000000080121b64                synopGMAC_TS_disable
                0x0000000080120d38                synopGMAC_wd_disable
                0x000000008011f71c                synopGMAC_frame_filter_enable
                0x000000008011f78c                synopGMAC_broadcast_enable
                0x000000008011faa8                synopGMAC_is_last_rx_desc
                0x0000000080121094                synopGMAC_unicast_hash_filter_enable
                0x000000008011fde4                synopGMAC_is_tx_ipv4header_checksum_error
                0x0000000080121cf0                synopGMAC_TS_all_frames_disable
                0x0000000080121298                synopGMAC_TS_read_timestamp
                0x0000000080120d6c                synopGMAC_TS_all_frames_enable
                0x000000008011f970                synopGMAC_set_owner_dma
                0x0000000080120e48                synopGMAC_TS_int_disable
                0x0000000080120f54                synopGMAC_wakeup_frame_enable
                0x000000008011f704                synopGMAC_tx_enable
                0x0000000080121c2c                synopGMAC_mmc_counters_reset_selfclear
                0x000000008011fd58                synopGMAC_is_ext_status
                0x000000008011fe54                synopGMAC_tx_checksum_offload_tcp_pseudo
                0x0000000080121bbc                synopGMAC_enable_mmc_ipc_rx_interrupt
                0x0000000080121c64                synopGMAC_enable_pmt_interrupt
                0x0000000080121bd8                synopGMAC_enable_mmc_rx_interrupt
                0x000000008011fd84                synopGMAC_is_rx_checksum_error
                0x0000000080121a1c                synopGMAC_enable_interrupt
                0x000000008011fe34                synopGMAC_tx_checksum_offload_tcponly
                0x000000008011fe74                synopGMAC_get_rx_qptr
                0x000000008011fa6c                synopGMAC_is_rx_frame_damaged
                0x000000008011f984                synopGMAC_set_desc_sof
                0x000000008011f628                synopGMAC_loopback_off
                0x0000000080120dfc                synopGMAC_TS_event_enable
                0x0000000080121d28                synopGMAC_TS_pkt_snoop_ver1
                0x0000000080120de4                synopGMAC_TS_IPV4_enable
                0x000000008011f7c4                synopGMAC_multicast_hash_filter_disable
                0x0000000080121168                synopGMAC_frame_filter_disable
                0x00000000801211fc                synopGMAC_disable_crs
                0x000000008011f5f4                synopGMAC_select_mii
                0x000000008011f55c                synopGMAC_jab_disable
                0x000000008011fe14                synopGMAC_tx_checksum_offload_ipv4hdr
                0x0000000080121328                synopGMAC_get_mac_addr
                0x0000000080121064                synopGMAC_rx_flow_control_enable
                0x000000008012124c                synopGMAC_write_hash_table_high
                0x0000000080121d60                synopGMAC_TS_IPV6_disable
                0x000000008011fd60                synopGMAC_ES_is_IP_header_error
                0x000000008011fa3c                synopGMAC_is_tx_aborted
                0x0000000080120f84                synopGMAC_disable_pmt_interrupt
                0x000000008011f678                synopGMAC_retry_enable
                0x000000008011fad4                synopGMAC_is_last_tx_desc
                0x000000008011f73c                synopGMAC_src_addr_filter_disable
                0x000000008011f60c                synopGMAC_rx_own_enable
                0x0000000080121c10                synopGMAC_mmc_counters_enable_rollover
                0x0000000080121940                synopGMAC_write_wakeup_frame_register
                0x0000000080120f3c                synopGMAC_pmt_unicast_enable
                0x00000000801219dc                synopGMAC_enable_dma_tx
                0x0000000080121b28                synopGMAC_TS_mac_addr_filt_disable
                0x000000008012110c                synopGMAC_dst_addr_filter_inverse
                0x0000000080120a18                synopGMAC_phy_loopback
                0x00000000801219cc                synopGMAC_resume_dma_tx
                0x0000000080121150                synopGMAC_hash_perfect_filter_enable
                0x0000000080120978                synopGMAC_write_phy_reg
                0x00000000801219f4                synopGMAC_enable_dma_rx
                0x000000008011fb10                synopGMAC_is_tx_desc_chained
                0x000000008011f908                synopGMAC_tx_desc_init_ring
                0x0000000080120330                synopGMAC_set_tx_qptr
                0x000000008011fdfc                synopGMAC_tx_checksum_offload_bypass
                0x000000008011f9dc                synopGMAC_is_sa_filter_failed
                0x000000008012119c                synopGMAC_pad_crc_strip_enable
                0x0000000080121cd4                synopGMAC_tx_disable
                0x000000008011f65c                synopGMAC_set_half_duplex
                0x000000008011f998                synopGMAC_set_desc_eof
                0x000000008011f86c                synopGMAC_check_phy_init
                0x00000000801212cc                synopGMAC_read_mmc_rx_int_status
                0x00000000801210ac                synopGMAC_promisc_enable
                0x0000000080121db4                synopGMAC_TS_master_disable
                0x000000008011fc90                synopGMAC_take_desc_ownership_tx
                0x0000000080121b0c                synopGMAC_TS_coarse_update
                0x0000000080120edc                synopGMAC_disable_mmc_tx_interrupt
                0x0000000080120db4                synopGMAC_TS_ptp_over_ethernet_enable
                0x00000000801219bc                synopGMAC_resume_dma_rx
                0x000000008011fbc8                synopGMAC_take_desc_ownership_rx
                0x00000000801205ec                synopGMAC_get_tx_qptr
                0x000000008011fa2c                synopGMAC_is_rx_desc_valid
                0x000000008011fa78                synopGMAC_is_rx_frame_collision
                0x000000008011fa9c                synopGMAC_is_rx_frame_length_errors
                0x0000000080121a2c                synopGMAC_get_interrupt_type
                0x00000000801218e8                synopGMAC_TS_load_target_timestamp
                0x000000008011f6d0                synopGMAC_deferral_check_disable
                0x000000008011f598                synopGMAC_jumbo_frame_enable
                0x000000008011f9ec                synopGMAC_is_desc_owned_by_dma
                0x0000000080120f9c                synopGMAC_power_down_enable
 .text          0x00000000801220c0      0xca0 cpu/mips/libmips.a(jz4775_ddr.o)
                0x0000000080122124                remap_swap
                0x00000000801221f8                sdram_init
                0x00000000801220c0                initdram
 .text          0x0000000080122d60     0x53c0 cpu/mips/libmips.a(jz4775_lcd.o)
                0x0000000080122e20                lcd_display_off
                0x00000000801277e4                lcd_ctrl_init
                0x0000000080122dd0                lcd_enable
                0x0000000080122dfc                lcd_disable
                0x0000000080122e18                lcd_display_on
                0x0000000080122e28                display_panel_init
                0x0000000080122d60                gpio_init
 .text          0x0000000080128120      0x790 cpu/mips/libmips.a(jz_ddr3_init.o)
                0x0000000080128120                ddr_cfg_init
                0x000000008012813c                ddr_phy_init
 .text          0x00000000801288b0      0x800 lib_mips/libmips.a(mips_linux.o)
                0x00000000801289d4                do_bootm_linux
 .text          0x00000000801290b0      0x100 drivers/nand/libnand.a(nand.o)
                0x00000000801290b0                nand_init
 .text          0x00000000801291b0     0x14f0 drivers/nand/libnand.a(nand_util.o)
                0x00000000801291b8                nand_lock
                0x0000000080129258                nand_unlock
                0x00000000801293ec                nand_get_lock_status
                0x000000008012a1e8                nand_erase_opts
                0x00000000801294c8                nand_read_opts
                0x0000000080129a74                nand_write_opts
 .text          0x000000008012a6a0     0x3fc0 drivers/nand/libnand.a(nand_base_jz4775.o)
                0x000000008012b048                nand_read_raw
                0x000000008012d8b0                nand_scan
                0x000000008012d26c                nand_erase_nand
                0x000000008012ae5c                nand_release
 .text          0x000000008012e660       0x10 drivers/nand/libnand.a(nand_ids.o)
                0x000000008012e660                get_flash_num
 .text          0x000000008012e670      0x320 drivers/nand/libnand.a(nand_ecc.o)
                0x000000008012e7b0                nand_correct_data
                0x000000008012e670                nand_calculate_ecc
 .text          0x000000008012e990     0x1f00 drivers/nand/libnand.a(nand_bbt.o)
                0x000000008012ea80                nand_isbad_bbt
                0x0000000080130774                nand_default_bbt
                0x000000008012f77c                nand_update_bbt
                0x0000000080130130                nand_scan_bbt
 .text          0x0000000080130890      0x650 /usr/local/mips-tools/mipseltools-gcc412-glibc261/bin/../lib/gcc/mipsel-linux/4.1.2/libgcc.a(_udivdi3.o)
                0x0000000080130890                __udivdi3
 .text          0x0000000080130ee0        0x0 /usr/local/mips-tools/mipseltools-gcc412-glibc261/bin/../lib/gcc/mipsel-linux/4.1.2/libgcc.a(_clz.o)
                0x0000000080130ee0                . = ALIGN (0x4)

.rodata         0x0000000080130ee0    0x4f030
 *(.rodata)
 .rodata        0x0000000080130ee0       0x30 lib_mips/libmips.a(board.o)
                0x0000000080130ee0                version_string
 .rodata        0x0000000080130f10       0x30 net/libnet.a(net.o)
 .rodata        0x0000000080130f40       0x20 net/libnet.a(tftp.o)
 .rodata        0x0000000080130f60      0x110 net/libnet.a(bootp.o)
 .rodata        0x0000000080131070       0x10 net/libnet.a(eth.o)
 .rodata        0x0000000080131080       0x40 net/libnet.a(nfs.o)
 .rodata        0x00000000801310c0       0x70 post/ingenic/libingenic_post.a(memory.o)
                0x00000000801310c0                otherpattern
 .rodata        0x0000000080131130       0xc0 common/libcommon.a(cmd_bootm.o)
 .rodata        0x00000000801311f0       0x30 common/libcommon.a(cmd_itest.o)
 .rodata        0x0000000080131220     0x30e0 common/libcommon.a(cmd_nand.o)
 .rodata        0x0000000080134300       0x20 common/libcommon.a(cmd_nvedit.o)
 .rodata        0x0000000080134320       0x10 common/libcommon.a(cmd_ftest.o)
 .rodata        0x0000000080134330    0x4b000 common/libcommon.a(lcd.o)
                0x0000000080134330                mylogobg
 .rodata        0x000000008017f330       0x30 common/libcommon.a(s_record.o)
 .rodata        0x000000008017f360       0x20 common/libcommon.a(xyzModem.o)
 .rodata        0x000000008017f380      0x200 common/libcommon.a(crc16.o)
 .rodata        0x000000008017f580      0x400 lib_generic/libgeneric.a(crc32.o)
 .rodata        0x000000008017f980      0x1a0 lib_generic/libgeneric.a(vsprintf.o)
 .rodata        0x000000008017fb20      0x110 lib_generic/libgeneric.a(zlib.o)
 .rodata        0x000000008017fc30       0x20 cpu/mips/libmips.a(jz4775_nand.o)
 .rodata        0x000000008017fc50       0x20 cpu/mips/libmips.a(synopGMAC_Dev.o)
 .rodata        0x000000008017fc70       0x10 drivers/nand/libnand.a(nand.o)
 .rodata        0x000000008017fc80       0x20 drivers/nand/libnand.a(nand_util.o)
 .rodata        0x000000008017fca0       0x70 drivers/nand/libnand.a(nand_base_jz4775.o)
 .rodata        0x000000008017fd10      0x100 drivers/nand/libnand.a(nand_ecc.o)
 .rodata        0x000000008017fe10      0x100 /usr/local/mips-tools/mipseltools-gcc412-glibc261/bin/../lib/gcc/mipsel-linux/4.1.2/libgcc.a(_clz.o)
                0x000000008017fe10                __clz_tab

.reginfo        0x000000008017ff10       0x18
 .reginfo       0x000000008017ff10       0x18 cpu/mips/start.o

.rodata.str1.4  0x000000008017ff28     0x6804
 .rodata.str1.4
                0x000000008017ff28       0xdc lib_mips/libmips.a(board.o)
                                         0xe0 (松开之前的大小)
 .rodata.str1.4
                0x0000000080180004      0x244 net/libnet.a(net.o)
 .rodata.str1.4
                0x0000000080180248      0x1c5 net/libnet.a(tftp.o)
                                        0x1e8 (松开之前的大小)
 *fill*         0x000000008018040d        0x3 00
 .rodata.str1.4
                0x0000000080180410      0x115 net/libnet.a(bootp.o)
                                        0x14c (松开之前的大小)
 *fill*         0x0000000080180525        0x3 00
 .rodata.str1.4
                0x0000000080180528       0x13 net/libnet.a(rarp.o)
                                         0x4c (松开之前的大小)
 *fill*         0x000000008018053b        0x1 00
 .rodata.str1.4
                0x000000008018053c       0xee net/libnet.a(eth.o)
                                         0xfc (松开之前的大小)
 *fill*         0x000000008018062a        0x2 00
 .rodata.str1.4
                0x000000008018062c      0x101 net/libnet.a(nfs.o)
                                        0x1a0 (松开之前的大小)
 *fill*         0x000000008018072d        0x3 00
 .rodata.str1.4
                0x0000000080180730       0x3a post/ingenic/libingenic_post.a(jz_post.o)
                                         0x3c (松开之前的大小)
 *fill*         0x000000008018076a        0x2 00
 .rodata.str1.4
                0x000000008018076c       0x2a post/ingenic/libingenic_post.a(jz_tests.o)
                                         0x2c (松开之前的大小)
 *fill*         0x0000000080180796        0x2 00
 .rodata.str1.4
                0x0000000080180798      0x477 post/ingenic/libingenic_post.a(memory.o)
                                        0x478 (松开之前的大小)
 *fill*         0x0000000080180c0f        0x1 00
 .rodata.str1.4
                0x0000000080180c10       0xf9 common/libcommon.a(main.o)
                                         0xfc (松开之前的大小)
 *fill*         0x0000000080180d09        0x3 00
 .rodata.str1.4
                0x0000000080180d0c       0xf7 common/libcommon.a(cmd_autoscript.o)
                                         0xf8 (松开之前的大小)
 *fill*         0x0000000080180e03        0x1 00
 .rodata.str1.4
                0x0000000080180e04       0xc2 common/libcommon.a(cmd_bdinfo.o)
                                         0xc4 (松开之前的大小)
 *fill*         0x0000000080180ec6        0x2 00
 .rodata.str1.4
                0x0000000080180ec8      0x10c common/libcommon.a(cmd_boot.o)
                                        0x118 (松开之前的大小)
 .rodata.str1.4
                0x0000000080180fd4      0x88f common/libcommon.a(cmd_bootm.o)
                                        0x8c4 (松开之前的大小)
 *fill*         0x0000000080181863        0x1 00
 .rodata.str1.4
                0x0000000080181864       0x6d common/libcommon.a(cmd_console.o)
                                         0x74 (松开之前的大小)
 *fill*         0x00000000801818d1        0x3 00
 .rodata.str1.4
                0x00000000801818d4      0x1c0 common/libcommon.a(cmd_diag.o)
 .rodata.str1.4
                0x0000000080181a94      0x76b common/libcommon.a(cmd_flash.o)
                                        0x780 (松开之前的大小)
 *fill*         0x00000000801821ff        0x1 00
 .rodata.str1.4
                0x0000000080182200       0xcf common/libcommon.a(cmd_itest.o)
                                         0xdc (松开之前的大小)
 *fill*         0x00000000801822cf        0x1 00
 .rodata.str1.4
                0x00000000801822d0      0x393 common/libcommon.a(cmd_load.o)
                                        0x3b4 (松开之前的大小)
 *fill*         0x0000000080182663        0x1 00
 .rodata.str1.4
                0x0000000080182664      0x62a common/libcommon.a(cmd_mem.o)
                                        0x648 (松开之前的大小)
 *fill*         0x0000000080182c8e        0x2 00
 .rodata.str1.4
                0x0000000080182c90       0x70 common/libcommon.a(cmd_misc.o)
                                         0x7c (松开之前的大小)
 .rodata.str1.4
                0x0000000080182d00      0x1b8 common/libcommon.a(cmd_msc.o)
                                        0x1c4 (松开之前的大小)
 .rodata.str1.4
                0x0000000080182eb8      0xa69 common/libcommon.a(cmd_nand.o)
                                        0xacc (松开之前的大小)
 *fill*         0x0000000080183921        0x3 00
 .rodata.str1.4
                0x0000000080183924      0x265 common/libcommon.a(cmd_net.o)
                                        0x2bc (松开之前的大小)
 *fill*         0x0000000080183b89        0x3 00
 .rodata.str1.4
                0x0000000080183b8c      0x4d3 common/libcommon.a(cmd_nvedit.o)
                                        0x570 (松开之前的大小)
 *fill*         0x000000008018405f        0x1 00
 .rodata.str1.4
                0x0000000080184060      0x341 common/libcommon.a(cmd_ftest.o)
                                        0x360 (松开之前的大小)
 *fill*         0x00000000801843a1        0x3 00
 .rodata.str1.4
                0x00000000801843a4      0x280 common/libcommon.a(command.o)
 .rodata.str1.4
                0x0000000080184624       0x75 common/libcommon.a(console.o)
                                         0x7c (松开之前的大小)
 *fill*         0x0000000080184699        0x3 00
 .rodata.str1.4
                0x000000008018469c       0x2f common/libcommon.a(devices.o)
                                         0x48 (松开之前的大小)
 *fill*         0x00000000801846cb        0x1 00
 .rodata.str1.4
                0x00000000801846cc       0x33 common/libcommon.a(env_common.o)
                                         0x34 (松开之前的大小)
 *fill*         0x00000000801846ff        0x1 00
 .rodata.str1.4
                0x0000000080184700       0x74 common/libcommon.a(env_msc.o)
 .rodata.str1.4
                0x0000000080184774      0x120 common/libcommon.a(flash.o)
 .rodata.str1.4
                0x0000000080184894       0x68 common/libcommon.a(lcd.o)
 .rodata.str1.4
                0x00000000801848fc       0xf1 common/libcommon.a(xyzModem.o)
                                         0xf8 (松开之前的大小)
 *fill*         0x00000000801849ed        0x3 00
 .rodata.str1.4
                0x00000000801849f0       0x17 lib_generic/libgeneric.a(display_options.o)
                                         0x20 (松开之前的大小)
 *fill*         0x0000000080184a07        0x1 00
 .rodata.str1.4
                0x0000000080184a08       0x57 lib_generic/libgeneric.a(vsprintf.o)
                                         0x58 (松开之前的大小)
 *fill*         0x0000000080184a5f        0x1 00
 .rodata.str1.4
                0x0000000080184a60      0x20f lib_generic/libgeneric.a(zlib.o)
                                        0x214 (松开之前的大小)
 *fill*         0x0000000080184c6f        0x1 00
 .rodata.str1.4
                0x0000000080184c70       0x47 board/mensa/libmensa.a(mensa.o)
                                         0x48 (松开之前的大小)
 *fill*         0x0000000080184cb7        0x1 00
 .rodata.str1.4
                0x0000000080184cb8      0x140 board/mensa/libmensa.a(flash.o)
                                        0x14c (松开之前的大小)
 .rodata.str1.4
                0x0000000080184df8       0x16 cpu/mips/libmips.a(cpu.o)
                                         0x18 (松开之前的大小)
 *fill*         0x0000000080184e0e        0x2 00
 .rodata.str1.4
                0x0000000080184e10       0x59 cpu/mips/libmips.a(jz4775_nand.o)
                                         0x5c (松开之前的大小)
 *fill*         0x0000000080184e69        0x3 00
 .rodata.str1.4
                0x0000000080184e6c      0x62d cpu/mips/libmips.a(jz4775_eth.o)
                                        0x640 (松开之前的大小)
 *fill*         0x0000000080185499        0x3 00
 .rodata.str1.4
                0x000000008018549c      0x32c cpu/mips/libmips.a(synopGMAC_Dev.o)
 .rodata.str1.4
                0x00000000801857c8       0x10 cpu/mips/libmips.a(jz4775_ddr.o)
 .rodata.str1.4
                0x00000000801857d8       0x31 cpu/mips/libmips.a(jz4775_lcd.o)
                                         0x34 (松开之前的大小)
 *fill*         0x0000000080185809        0x3 00
 .rodata.str1.4
                0x000000008018580c       0x3d cpu/mips/libmips.a(jz_ddr3_init.o)
                                         0x40 (松开之前的大小)
 *fill*         0x0000000080185849        0x3 00
 .rodata.str1.4
                0x000000008018584c       0xa7 lib_mips/libmips.a(mips_linux.o)
                                        0x11c (松开之前的大小)
 *fill*         0x00000000801858f3        0x1 00
 .rodata.str1.4
                0x00000000801858f4        0x9 drivers/nand/libnand.a(nand.o)
                                          0xc (松开之前的大小)
 *fill*         0x00000000801858fd        0x3 00
 .rodata.str1.4
                0x0000000080185900      0x542 drivers/nand/libnand.a(nand_util.o)
                                        0x57c (松开之前的大小)
 *fill*         0x0000000080185e42        0x2 00
 .rodata.str1.4
                0x0000000080185e44      0x44f drivers/nand/libnand.a(nand_base_jz4775.o)
                                        0x450 (松开之前的大小)
 *fill*         0x0000000080186293        0x1 00
 .rodata.str1.4
                0x0000000080186294      0x190 drivers/nand/libnand.a(nand_ids.o)
 .rodata.str1.4
                0x0000000080186424      0x308 drivers/nand/libnand.a(nand_bbt.o)

.rodata.cst4    0x000000008018672c       0x14
 .rodata.cst4   0x000000008018672c        0x4 cpu/mips/libmips.a(jz4775_eth.o)
 .rodata.cst4   0x0000000080186730       0x10 cpu/mips/libmips.a(jz4775_lcd.o)
                0x0000000080186740                . = ALIGN (0x4)

.data           0x0000000080186740    0x105c0
 *(.data)
 .data          0x0000000080186740        0x0 cpu/mips/start.o
 .data          0x0000000080186740        0x0 lib_mips/libmips.a(board.o)
 .data          0x0000000080186740       0x10 net/libnet.a(net.o)
                0x0000000080186740                NetBcastAddr
                0x0000000080186748                NetOurNativeVLAN
                0x0000000080186746                NetOurVLAN
 .data          0x0000000080186750        0x0 net/libnet.a(tftp.o)
 .data          0x0000000080186750        0x0 net/libnet.a(bootp.o)
 .data          0x0000000080186750        0x0 net/libnet.a(rarp.o)
 .data          0x0000000080186750        0x0 net/libnet.a(eth.o)
 .data          0x0000000080186750       0x10 net/libnet.a(nfs.o)
 .data          0x0000000080186760        0x0 post/ingenic/libingenic_post.a(jz_post.o)
 .data          0x0000000080186760       0x10 post/ingenic/libingenic_post.a(jz_tests.o)
                0x0000000080186760                post_list_size
 .data          0x0000000080186770        0x0 post/ingenic/libingenic_post.a(memory.o)
 .data          0x0000000080186770       0x10 common/libcommon.a(main.o)
 .data          0x0000000080186780        0x0 common/libcommon.a(cmd_autoscript.o)
 .data          0x0000000080186780        0x0 common/libcommon.a(cmd_bdinfo.o)
 .data          0x0000000080186780        0x0 common/libcommon.a(cmd_boot.o)
 .data          0x0000000080186780       0x10 common/libcommon.a(cmd_bootm.o)
                0x0000000080186780                load_addr
 .data          0x0000000080186790        0x0 common/libcommon.a(cmd_console.o)
 .data          0x0000000080186790        0x0 common/libcommon.a(cmd_diag.o)
 .data          0x0000000080186790        0x0 common/libcommon.a(cmd_flash.o)
 .data          0x0000000080186790        0x0 common/libcommon.a(cmd_itest.o)
 .data          0x0000000080186790       0x10 common/libcommon.a(cmd_load.o)
 .data          0x00000000801867a0       0x10 common/libcommon.a(cmd_mem.o)
                0x00000000801867a0                dp_last_length
 .data          0x00000000801867b0        0x0 common/libcommon.a(cmd_misc.o)
 .data          0x00000000801867b0        0x0 common/libcommon.a(cmd_msc.o)
 .data          0x00000000801867b0        0x0 common/libcommon.a(cmd_nand.o)
 .data          0x00000000801867b0        0x0 common/libcommon.a(cmd_net.o)
 .data          0x00000000801867b0        0x0 common/libcommon.a(cmd_nvedit.o)
 .data          0x00000000801867b0        0x0 common/libcommon.a(cmd_ftest.o)
 .data          0x00000000801867b0        0x0 common/libcommon.a(command.o)
 .data          0x00000000801867b0        0x0 common/libcommon.a(console.o)
 .data          0x00000000801867b0        0x0 common/libcommon.a(devices.o)
 .data          0x00000000801867b0       0x10 common/libcommon.a(dlmalloc.o)
 .data          0x00000000801867c0      0x130 common/libcommon.a(env_common.o)
                0x00000000801867c0                default_environment
                0x00000000801868ec                default_environment_size
 .data          0x00000000801868f0        0x0 common/libcommon.a(env_msc.o)
 .data          0x00000000801868f0        0x0 common/libcommon.a(exports.o)
 .data          0x00000000801868f0        0x0 common/libcommon.a(flash.o)
 .data          0x00000000801868f0     0x3c90 common/libcommon.a(lcd.o)
                0x000000008018696c                bmp_logo_bitmap
                0x000000008018a56c                progress_x
                0x00000000801868f0                bmp_logo_palette
                0x000000008018a570                progress_y
 .data          0x000000008018a580        0x0 common/libcommon.a(lists.o)
 .data          0x000000008018a580        0x0 common/libcommon.a(s_record.o)
 .data          0x000000008018a580        0x0 common/libcommon.a(xyzModem.o)
 .data          0x000000008018a580        0x0 common/libcommon.a(crc16.o)
 .data          0x000000008018a580        0x0 lib_generic/libgeneric.a(crc32.o)
 .data          0x000000008018a580        0x0 lib_generic/libgeneric.a(display_options.o)
 .data          0x000000008018a580        0x0 lib_generic/libgeneric.a(string.o)
 .data          0x000000008018a580        0x0 lib_generic/libgeneric.a(vsprintf.o)
 .data          0x000000008018a580      0x1f0 lib_generic/libgeneric.a(zlib.o)
 .data          0x000000008018a770      0x100 lib_generic/libgeneric.a(ctype.o)
                0x000000008018a770                _ctype
 .data          0x000000008018a870        0x0 board/mensa/libmensa.a(mensa.o)
 .data          0x000000008018a870        0x0 board/mensa/libmensa.a(flash.o)
 .data          0x000000008018a870        0x0 cpu/mips/libmips.a(jz_serial.o)
 .data          0x000000008018a870        0x0 cpu/mips/libmips.a(cpu.o)
 .data          0x000000008018a870        0x0 cpu/mips/libmips.a(interrupts.o)
 .data          0x000000008018a870        0x0 cpu/mips/libmips.a(jz4775.o)
 .data          0x000000008018a870        0x0 cpu/mips/libmips.a(jz4775_nand.o)
 .data          0x000000008018a870        0x0 cpu/mips/libmips.a(jz4775_eth.o)
 .data          0x000000008018a870        0x0 cpu/mips/libmips.a(synopGMAC_Dev.o)
 .data          0x000000008018a870        0x0 cpu/mips/libmips.a(jz4775_ddr.o)
 .data          0x000000008018a870       0xb0 cpu/mips/libmips.a(jz4775_lcd.o)
                0x000000008018a8f4                panel_info
                0x000000008018a870                jzfb
 .data          0x000000008018a920        0x0 cpu/mips/libmips.a(jz_ddr3_init.o)
 .data          0x000000008018a920        0x0 lib_mips/libmips.a(mips_linux.o)
 .data          0x000000008018a920       0x10 drivers/nand/libnand.a(nand.o)
                0x000000008018a920                nand_curr_device
 .data          0x000000008018a930     0x30e0 drivers/nand/libnand.a(nand_util.o)
 .data          0x000000008018da10     0x92d0 drivers/nand/libnand.a(nand_base_jz4775.o)
 .data          0x0000000080196ce0        0x0 drivers/nand/libnand.a(nand_ids.o)
 .data          0x0000000080196ce0        0x0 drivers/nand/libnand.a(nand_ecc.o)
 .data          0x0000000080196ce0       0x20 drivers/nand/libnand.a(nand_bbt.o)
 .data          0x0000000080196d00        0x0 /usr/local/mips-tools/mipseltools-gcc412-glibc261/bin/../lib/gcc/mipsel-linux/4.1.2/libgcc.a(_udivdi3.o)
 .data          0x0000000080196d00        0x0 /usr/local/mips-tools/mipseltools-gcc412-glibc261/bin/../lib/gcc/mipsel-linux/4.1.2/libgcc.a(_clz.o)

.data.rel       0x0000000080196d00       0x48
 .data.rel      0x0000000080196d00       0x28 lib_mips/libmips.a(board.o)
                0x0000000080196d00                init_sequence
 .data.rel      0x0000000080196d28       0x20 post/ingenic/libingenic_post.a(jz_tests.o)
                0x0000000080196d28                post_list

.data.rel.ro.local
                0x0000000080196d48        0x4
 .data.rel.ro.local
                0x0000000080196d48        0x4 lib_mips/libmips.a(board.o)

.data.rel.ro    0x0000000080196d4c       0x14
 .data.rel.ro   0x0000000080196d4c        0x4 common/libcommon.a(main.o)
 .data.rel.ro   0x0000000080196d50        0x8 common/libcommon.a(xyzModem.o)
 .data.rel.ro   0x0000000080196d58        0x4 lib_generic/libgeneric.a(zlib.o)
 .data.rel.ro   0x0000000080196d5c        0x4 drivers/nand/libnand.a(nand_bbt.o)

.data.rel.local
                0x0000000080196d60      0xcd4
 .data.rel.local
                0x0000000080196d60       0x68 common/libcommon.a(cmd_itest.o)
                0x0000000080196d60                op_table
 .data.rel.local
                0x0000000080196dc8        0xc common/libcommon.a(devices.o)
                0x0000000080196dc8                stdio_names
 .data.rel.local
                0x0000000080196dd4      0x408 common/libcommon.a(dlmalloc.o)
 .data.rel.local
                0x00000000801971dc        0x4 common/libcommon.a(env_common.o)
                0x00000000801971dc                env_get_char
 .data.rel.local
                0x00000000801971e0        0x4 common/libcommon.a(env_msc.o)
                0x00000000801971e0                env_name_spec
 .data.rel.local
                0x00000000801971e4       0x24 lib_generic/libgeneric.a(zlib.o)
                0x00000000801971e4                zlib_version
                0x00000000801971e8                z_errmsg
 .data.rel.local
                0x0000000080197208      0x160 cpu/mips/libmips.a(jz4775_eth.o)
 .data.rel.local
                0x0000000080197368      0x5d0 drivers/nand/libnand.a(nand_ids.o)
                0x00000000801978e8                nand_manuf_ids
                0x0000000080197368                nand_flash_ids
 .data.rel.local
                0x0000000080197938       0xfc drivers/nand/libnand.a(nand_bbt.o)

.eh_frame       0x0000000080197a34       0x20
 .eh_frame      0x0000000080197a34       0x20 /usr/local/mips-tools/mipseltools-gcc412-glibc261/bin/../lib/gcc/mipsel-linux/4.1.2/libgcc.a(_udivdi3.o)
                0x0000000080197a54                . = ALIGN (0x4)

.sdata
 *(.sdata)
 *(.sdata)
                0x0000000080197a60                . = ALIGN (0x10)
                0x0000000080197a60                _gp = .
                0x0000000080197a60                __got_start = .

.got            0x0000000080197a60      0x70c
 *(.got)
 .got           0x0000000080197a60      0x70c cpu/mips/start.o
                0x0000000080197a60                _GLOBAL_OFFSET_TABLE_
                0x000000008019816c                __got_end = .
                0x0000000080198170                . = ALIGN (0x10)
                0x0000000080198170                __u_boot_cmd_start = .

.u_boot_cmd     0x0000000080198170      0x498
 *(.u_boot_cmd)
 .u_boot_cmd    0x0000000080198170       0x18 common/libcommon.a(cmd_autoscript.o)
                0x0000000080198170                __u_boot_cmd_autoscr
 .u_boot_cmd    0x0000000080198188       0x18 common/libcommon.a(cmd_bdinfo.o)
                0x0000000080198188                __u_boot_cmd_bdinfo
 .u_boot_cmd    0x00000000801981a0       0x30 common/libcommon.a(cmd_boot.o)
                0x00000000801981b8                __u_boot_cmd_reset
                0x00000000801981a0                __u_boot_cmd_go
 .u_boot_cmd    0x00000000801981d0       0x78 common/libcommon.a(cmd_bootm.o)
                0x00000000801981d0                __u_boot_cmd_bootm
                0x0000000080198218                __u_boot_cmd_iminfo
                0x0000000080198200                __u_boot_cmd_bootd
                0x00000000801981e8                __u_boot_cmd_boot
                0x0000000080198230                __u_boot_cmd_imls
 .u_boot_cmd    0x0000000080198248       0x18 common/libcommon.a(cmd_console.o)
                0x0000000080198248                __u_boot_cmd_coninfo
 .u_boot_cmd    0x0000000080198260       0x18 common/libcommon.a(cmd_diag.o)
                0x0000000080198260                __u_boot_cmd_diag
 .u_boot_cmd    0x0000000080198278       0x48 common/libcommon.a(cmd_flash.o)
                0x0000000080198278                __u_boot_cmd_flinfo
                0x0000000080198290                __u_boot_cmd_erase
                0x00000000801982a8                __u_boot_cmd_protect
 .u_boot_cmd    0x00000000801982c0       0x18 common/libcommon.a(cmd_itest.o)
                0x00000000801982c0                __u_boot_cmd_itest
 .u_boot_cmd    0x00000000801982d8       0x48 common/libcommon.a(cmd_load.o)
                0x0000000080198308                __u_boot_cmd_loady
                0x00000000801982f0                __u_boot_cmd_loadb
                0x00000000801982d8                __u_boot_cmd_loads
 .u_boot_cmd    0x0000000080198320       0xf0 common/libcommon.a(cmd_mem.o)
                0x0000000080198320                __u_boot_cmd_md
                0x0000000080198398                __u_boot_cmd_cmp
                0x0000000080198368                __u_boot_cmd_mw
                0x00000000801983e0                __u_boot_cmd_loop
                0x00000000801983c8                __u_boot_cmd_base
                0x0000000080198338                __u_boot_cmd_mm
                0x00000000801983b0                __u_boot_cmd_crc32
                0x0000000080198350                __u_boot_cmd_nm
                0x00000000801983f8                __u_boot_cmd_mtest
                0x0000000080198380                __u_boot_cmd_cp
 .u_boot_cmd    0x0000000080198410       0x18 common/libcommon.a(cmd_misc.o)
                0x0000000080198410                __u_boot_cmd_sleep
 .u_boot_cmd    0x0000000080198428       0x18 common/libcommon.a(cmd_msc.o)
                0x0000000080198428                __u_boot_cmd_msc
 .u_boot_cmd    0x0000000080198440       0x30 common/libcommon.a(cmd_nand.o)
                0x0000000080198440                __u_boot_cmd_nand
                0x0000000080198458                __u_boot_cmd_nboot
 .u_boot_cmd    0x0000000080198470       0x90 common/libcommon.a(cmd_net.o)
                0x00000000801984d0                __u_boot_cmd_nfs
                0x00000000801984e8                __u_boot_cmd_ping
                0x00000000801984a0                __u_boot_cmd_rarpboot
                0x0000000080198488                __u_boot_cmd_tftpboot
                0x0000000080198470                __u_boot_cmd_bootp
                0x00000000801984b8                __u_boot_cmd_dhcp
 .u_boot_cmd    0x0000000080198500       0x78 common/libcommon.a(cmd_nvedit.o)
                0x0000000080198560                __u_boot_cmd_run
                0x0000000080198530                __u_boot_cmd_saveenv
                0x0000000080198548                __u_boot_cmd_askenv
                0x0000000080198500                __u_boot_cmd_printenv
                0x0000000080198518                __u_boot_cmd_setenv
 .u_boot_cmd    0x0000000080198578       0x18 common/libcommon.a(cmd_ftest.o)
                0x0000000080198578                __u_boot_cmd_fnand
 .u_boot_cmd    0x0000000080198590       0x60 common/libcommon.a(command.o)
                0x00000000801985a8                __u_boot_cmd_echo
                0x00000000801985d8                __u_boot_cmd_question_mark
                0x0000000080198590                __u_boot_cmd_version
                0x00000000801985c0                __u_boot_cmd_help
 .u_boot_cmd    0x00000000801985f0       0x18 common/libcommon.a(lcd.o)
                0x00000000801985f0                __u_boot_cmd_cls
                0x0000000080198608                __u_boot_cmd_end = .
                0x0000000080198608                uboot_end_data = .
                0x00000000000001c3                num_got_entries = ((__got_end - __got_start) >> 0x2)
                0x0000000080198608                . = ALIGN (0x4)

.sbss
 *(.sbss)

.bss            0x0000000080198610     0xb7b0
 *(.bss)
 .bss           0x0000000080198610        0x0 cpu/mips/start.o
 .bss           0x0000000080198610       0x10 lib_mips/libmips.a(board.o)
 .bss           0x0000000080198620       0xd0 net/libnet.a(net.o)
                0x000000008019862c                NetOurNISDomain
                0x00000000801986b0                NetServerEther
                0x0000000080198620                NetOurSubnetMask
                0x00000000801986ac                NetBootFileSize
                0x000000008019864c                NetOurHostName
                0x0000000080198624                NetOurGatewayIP
                0x00000000801986b8                NetEtherNullAddr
                0x00000000801986c0                NetRestartWrap
                0x00000000801986c4                NetTxPacket
                0x0000000080198628                NetOurDNSIP
                0x000000008019866c                NetOurRootPath
 .bss           0x00000000801986f0       0x40 net/libnet.a(tftp.o)
 .bss           0x0000000080198730       0x10 net/libnet.a(bootp.o)
                0x0000000080198738                NetDHCPServerIP
                0x0000000080198730                dhcp_state
                0x0000000080198734                dhcp_leasetime
 .bss           0x0000000080198740        0x0 net/libnet.a(rarp.o)
 .bss           0x0000000080198740       0x10 net/libnet.a(eth.o)
 .bss           0x0000000080198750      0x8b0 net/libnet.a(nfs.o)
 .bss           0x0000000080199000        0x0 post/ingenic/libingenic_post.a(jz_post.o)
 .bss           0x0000000080199000        0x0 post/ingenic/libingenic_post.a(jz_tests.o)
 .bss           0x0000000080199000       0x10 post/ingenic/libingenic_post.a(memory.o)
 .bss           0x0000000080199010      0x100 common/libcommon.a(main.o)
 .bss           0x0000000080199110        0x0 common/libcommon.a(cmd_autoscript.o)
 .bss           0x0000000080199110        0x0 common/libcommon.a(cmd_bdinfo.o)
 .bss           0x0000000080199110        0x0 common/libcommon.a(cmd_boot.o)
 .bss           0x0000000080199110        0x0 common/libcommon.a(cmd_bootm.o)
 .bss           0x0000000080199110        0x0 common/libcommon.a(cmd_console.o)
 .bss           0x0000000080199110        0x0 common/libcommon.a(cmd_diag.o)
 .bss           0x0000000080199110        0x0 common/libcommon.a(cmd_flash.o)
 .bss           0x0000000080199110        0x0 common/libcommon.a(cmd_itest.o)
 .bss           0x0000000080199110       0x40 common/libcommon.a(cmd_load.o)
 .bss           0x0000000080199150       0x10 common/libcommon.a(cmd_mem.o)
 .bss           0x0000000080199160        0x0 common/libcommon.a(cmd_misc.o)
 .bss           0x0000000080199160       0x20 common/libcommon.a(cmd_msc.o)
 .bss           0x0000000080199180        0x0 common/libcommon.a(cmd_nand.o)
 .bss           0x0000000080199180        0x0 common/libcommon.a(cmd_net.o)
 .bss           0x0000000080199180        0x0 common/libcommon.a(cmd_nvedit.o)
 .bss           0x0000000080199180       0x10 common/libcommon.a(cmd_ftest.o)
                0x0000000080199188                oobbuf
                0x0000000080199184                tempbuf
                0x0000000080199180                databuf
 .bss           0x0000000080199190        0x0 common/libcommon.a(command.o)
 .bss           0x0000000080199190       0x10 common/libcommon.a(console.o)
 .bss           0x00000000801991a0       0x10 common/libcommon.a(devices.o)
                0x00000000801991a0                devlist
                0x00000000801991a4                stdio_devices
 .bss           0x00000000801991b0       0x40 common/libcommon.a(dlmalloc.o)
 .bss           0x00000000801991f0        0x0 common/libcommon.a(env_common.o)
 .bss           0x00000000801991f0       0x10 common/libcommon.a(env_msc.o)
                0x00000000801991f0                env_ptr
 .bss           0x0000000080199200        0x0 common/libcommon.a(exports.o)
 .bss           0x0000000080199200        0x0 common/libcommon.a(flash.o)
 .bss           0x0000000080199200       0x10 common/libcommon.a(lcd.o)
                0x0000000080199200                lcd_is_enabled
 .bss           0x0000000080199210        0x0 common/libcommon.a(lists.o)
 .bss           0x0000000080199210        0x0 common/libcommon.a(s_record.o)
 .bss           0x0000000080199210      0x440 common/libcommon.a(xyzModem.o)
 .bss           0x0000000080199650        0x0 common/libcommon.a(crc16.o)
 .bss           0x0000000080199650        0x0 lib_generic/libgeneric.a(crc32.o)
 .bss           0x0000000080199650        0x0 lib_generic/libgeneric.a(display_options.o)
 .bss           0x0000000080199650        0x0 lib_generic/libgeneric.a(string.o)
 .bss           0x0000000080199650        0x0 lib_generic/libgeneric.a(vsprintf.o)
 .bss           0x0000000080199650     0x10b0 lib_generic/libgeneric.a(zlib.o)
 .bss           0x000000008019a700        0x0 lib_generic/libgeneric.a(ctype.o)
 .bss           0x000000008019a700        0x0 board/mensa/libmensa.a(mensa.o)
 .bss           0x000000008019a700        0x0 board/mensa/libmensa.a(flash.o)
 .bss           0x000000008019a700       0x10 cpu/mips/libmips.a(jz_serial.o)
 .bss           0x000000008019a710        0x0 cpu/mips/libmips.a(cpu.o)
 .bss           0x000000008019a710        0x0 cpu/mips/libmips.a(interrupts.o)
 .bss           0x000000008019a710       0x10 cpu/mips/libmips.a(jz4775.o)
 .bss           0x000000008019a720        0x0 cpu/mips/libmips.a(jz4775_nand.o)
 .bss           0x000000008019a720      0x3a0 cpu/mips/libmips.a(jz4775_eth.o)
                0x000000008019a720                debug_enable
 .bss           0x000000008019aac0        0x0 cpu/mips/libmips.a(synopGMAC_Dev.o)
 .bss           0x000000008019aac0        0x0 cpu/mips/libmips.a(jz4775_ddr.o)
 .bss           0x000000008019aac0        0x0 cpu/mips/libmips.a(jz4775_lcd.o)
 .bss           0x000000008019aac0        0x0 cpu/mips/libmips.a(jz_ddr3_init.o)
 .bss           0x000000008019aac0       0x20 lib_mips/libmips.a(mips_linux.o)
 .bss           0x000000008019aae0       0xc0 drivers/nand/libnand.a(nand.o)
 .bss           0x000000008019aba0     0x1050 drivers/nand/libnand.a(nand_util.o)
 .bss           0x000000008019bbf0        0x0 drivers/nand/libnand.a(nand_base_jz4775.o)
 .bss           0x000000008019bbf0        0x0 drivers/nand/libnand.a(nand_ids.o)
 .bss           0x000000008019bbf0        0x0 drivers/nand/libnand.a(nand_ecc.o)
 .bss           0x000000008019bbf0        0x0 drivers/nand/libnand.a(nand_bbt.o)
 .bss           0x000000008019bbf0        0x0 /usr/local/mips-tools/mipseltools-gcc412-glibc261/bin/../lib/gcc/mipsel-linux/4.1.2/libgcc.a(_udivdi3.o)
 .bss           0x000000008019bbf0        0x0 /usr/local/mips-tools/mipseltools-gcc412-glibc261/bin/../lib/gcc/mipsel-linux/4.1.2/libgcc.a(_clz.o)
 COMMON         0x000000008019bbf0     0x6d00 net/libnet.a(net.o)
                0x000000008019bbf0                NetRxPackets
                0x000000008019bc30                BootFile
                0x000000008019bcb0                NetArpWaitPacketBuf
                0x000000008019c2d0                PktBuf
 COMMON         0x00000000801a28f0      0x100 common/libcommon.a(main.o)
                0x00000000801a28f0                console_buffer
 COMMON         0x00000000801a29f0       0x40 common/libcommon.a(cmd_bootm.o)
                0x00000000801a29f0                header
 COMMON         0x00000000801a2a30       0x34 common/libcommon.a(cmd_load.o)
                0x00000000801a2a30                os_data_header
                0x00000000801a2a50                send_parms
 COMMON         0x00000000801a2a64      0x28c board/mensa/libmensa.a(flash.o)
                0x00000000801a2a64                flash_info
 COMMON         0x00000000801a2cf0     0x10d0 drivers/nand/libnand.a(nand.o)
                0x00000000801a2cf0                nand_info
                0x00000000801a3dc0                uboot_end = .

.scommon        0x00000000801a3dc0       0xa0
 .scommon       0x00000000801a3dc0        0x4 lib_mips/libmips.a(board.o)
                0x00000000801a3dc0                monitor_flash_len
 .scommon       0x00000000801a3dc4       0x44 net/libnet.a(net.o)
                0x00000000801a3dc4                NetArpWaitTry
                0x00000000801a3dc8                NetArpWaitPacketMAC
                0x00000000801a3dcc                NetOurEther
                0x00000000801a3dd4                NetOurIP
                0x00000000801a3dd8                NetPingIP
                0x00000000801a3ddc                NetServerIP
                0x00000000801a3de0                NetArpWaitTxPacketSize
                0x00000000801a3de4                NetArpWaitReplyIP
                0x00000000801a3de8                NetArpWaitTxPacket
                0x00000000801a3dec                NetArpWaitPacketIP
                0x00000000801a3df0                NetState
                0x00000000801a3df4                NetIPID
                0x00000000801a3df8                NetRxPkt
                0x00000000801a3dfc                NetRxPktLen
                0x00000000801a3e00                NetBootFileXferSize
                0x00000000801a3e04                NetArpWaitTimerStart
 .scommon       0x00000000801a3e08        0x8 net/libnet.a(bootp.o)
                0x00000000801a3e08                BootpTry
                0x00000000801a3e0c                BootpID
 .scommon       0x00000000801a3e10        0x4 net/libnet.a(rarp.o)
                0x00000000801a3e10                RarpTry
 .scommon       0x00000000801a3e14       0x1c common/libcommon.a(cmd_load.o)
                0x00000000801a3e14                his_pad_char
                0x00000000801a3e18                os_data_count
                0x00000000801a3e1c                os_data_init
                0x00000000801a3e20                send_ptr
                0x00000000801a3e24                os_data_char
                0x00000000801a3e28                his_eol
                0x00000000801a3e29                his_quote
                0x00000000801a3e2c                his_pad_count
 .scommon       0x00000000801a3e30       0x10 common/libcommon.a(cmd_mem.o)
                0x00000000801a3e30                dp_last_size
                0x00000000801a3e34                dp_last_addr
                0x00000000801a3e38                mm_last_size
                0x00000000801a3e3c                mm_last_addr
 .scommon       0x00000000801a3e40        0x4 lib_generic/libgeneric.a(string.o)
                0x00000000801a3e40                ___strtok
 .scommon       0x00000000801a3e44       0x1c cpu/mips/libmips.a(jz4775_lcd.o)
                0x00000000801a3e44                lcd_console_address
                0x00000000801a3e48                lcd_color_fg
                0x00000000801a3e4c                lcd_line_length
                0x00000000801a3e50                console_col
                0x00000000801a3e54                lcd_base
                0x00000000801a3e58                console_row
                0x00000000801a3e5c                lcd_color_bg

.rel.dyn        0x00000000801a3e60        0x0
 .rel.dyn       0x0000000000000000        0x0 cpu/mips/start.o
段 .text 的地址设置为 0x80100200
LOAD cpu/mips/start.o
START GROUP
LOAD lib_generic/libgeneric.a
LOAD board/mensa/libmensa.a
LOAD cpu/mips/libmips.a
LOAD lib_mips/libmips.a
LOAD fs/cramfs/libcramfs.a
LOAD fs/fat/libfat.a
LOAD fs/fdos/libfdos.a
LOAD fs/jffs2/libjffs2.a
LOAD fs/reiserfs/libreiserfs.a
LOAD fs/ext2/libext2fs.a
LOAD net/libnet.a
LOAD disk/libdisk.a
LOAD rtc/librtc.a
LOAD dtt/libdtt.a
LOAD drivers/libdrivers.a
LOAD drivers/nand/libnand.a
LOAD drivers/nand_legacy/libnand_legacy.a
LOAD drivers/sk98lin/libsk98lin.a
LOAD post/ingenic/libingenic_post.a
LOAD common/libcommon.a
END GROUP
LOAD /usr/local/mips-tools/mipseltools-gcc412-glibc261/bin/../lib/gcc/mipsel-linux/4.1.2/libgcc.a
OUTPUT(u-boot elf32-tradlittlemips)

.pdr            0x0000000000000000     0x5020
 .pdr           0x0000000000000000       0x20 cpu/mips/start.o
 .pdr           0x0000000000000020       0xe0 lib_mips/libmips.a(board.o)
 .pdr           0x0000000000000100      0x360 net/libnet.a(net.o)
 .pdr           0x0000000000000460       0x80 net/libnet.a(tftp.o)
 .pdr           0x00000000000004e0      0x100 net/libnet.a(bootp.o)
 .pdr           0x00000000000005e0       0x60 net/libnet.a(rarp.o)
 .pdr           0x0000000000000640      0x1a0 net/libnet.a(eth.o)
 .pdr           0x00000000000007e0      0x140 net/libnet.a(nfs.o)
 .pdr           0x0000000000000920       0xe0 post/ingenic/libingenic_post.a(jz_post.o)
 .pdr           0x0000000000000a00        0x0 post/ingenic/libingenic_post.a(jz_tests.o)
 .pdr           0x0000000000000a00      0x100 post/ingenic/libingenic_post.a(memory.o)
 .pdr           0x0000000000000b00       0xa0 common/libcommon.a(main.o)
 .pdr           0x0000000000000ba0       0x40 common/libcommon.a(cmd_autoscript.o)
 .pdr           0x0000000000000be0       0x40 common/libcommon.a(cmd_bdinfo.o)
 .pdr           0x0000000000000c20       0x20 common/libcommon.a(cmd_boot.o)
 .pdr           0x0000000000000c40      0x120 common/libcommon.a(cmd_bootm.o)
 .pdr           0x0000000000000d60       0x20 common/libcommon.a(cmd_console.o)
 .pdr           0x0000000000000d80       0x20 common/libcommon.a(cmd_diag.o)
 .pdr           0x0000000000000da0      0x100 common/libcommon.a(cmd_flash.o)
 .pdr           0x0000000000000ea0       0x80 common/libcommon.a(cmd_itest.o)
 .pdr           0x0000000000000f20      0x200 common/libcommon.a(cmd_load.o)
 .pdr           0x0000000000001120      0x180 common/libcommon.a(cmd_mem.o)
 .pdr           0x00000000000012a0       0x20 common/libcommon.a(cmd_misc.o)
 .pdr           0x00000000000012c0       0x80 common/libcommon.a(cmd_msc.o)
 .pdr           0x0000000000001340       0x80 common/libcommon.a(cmd_nand.o)
 .pdr           0x00000000000013c0       0xe0 common/libcommon.a(cmd_net.o)
 .pdr           0x00000000000014a0      0x120 common/libcommon.a(cmd_nvedit.o)
 .pdr           0x00000000000015c0       0x40 common/libcommon.a(cmd_ftest.o)
 .pdr           0x0000000000001600       0x80 common/libcommon.a(command.o)
 .pdr           0x0000000000001680      0x2a0 common/libcommon.a(console.o)
 .pdr           0x0000000000001920       0x60 common/libcommon.a(devices.o)
 .pdr           0x0000000000001980      0x180 common/libcommon.a(dlmalloc.o)
 .pdr           0x0000000000001b00       0xa0 common/libcommon.a(env_common.o)
 .pdr           0x0000000000001ba0       0x80 common/libcommon.a(env_msc.o)
 .pdr           0x0000000000001c20       0x60 common/libcommon.a(exports.o)
 .pdr           0x0000000000001c80       0x80 common/libcommon.a(flash.o)
 .pdr           0x0000000000001d00       0xe0 common/libcommon.a(lcd.o)
 .pdr           0x0000000000001de0      0x1c0 common/libcommon.a(lists.o)
 .pdr           0x0000000000001fa0       0x60 common/libcommon.a(s_record.o)
 .pdr           0x0000000000002000      0x140 common/libcommon.a(xyzModem.o)
 .pdr           0x0000000000002140       0x20 common/libcommon.a(crc16.o)
 .pdr           0x0000000000002160       0x40 lib_generic/libgeneric.a(crc32.o)
 .pdr           0x00000000000021a0       0x40 lib_generic/libgeneric.a(display_options.o)
 .pdr           0x00000000000021e0      0x240 lib_generic/libgeneric.a(string.o)
 .pdr           0x0000000000002420       0xe0 lib_generic/libgeneric.a(vsprintf.o)
 .pdr           0x0000000000002500      0x200 lib_generic/libgeneric.a(zlib.o)
 .pdr           0x0000000000002700        0x0 lib_generic/libgeneric.a(ctype.o)
 .pdr           0x0000000000002700       0x40 board/mensa/libmensa.a(mensa.o)
 .pdr           0x0000000000002740       0x80 board/mensa/libmensa.a(flash.o)
 .pdr           0x00000000000027c0      0x100 cpu/mips/libmips.a(jz_serial.o)
 .pdr           0x00000000000028c0       0xc0 cpu/mips/libmips.a(cpu.o)
 .pdr           0x0000000000002980       0x40 cpu/mips/libmips.a(interrupts.o)
 .pdr           0x00000000000029c0      0x220 cpu/mips/libmips.a(jz4775.o)
 .pdr           0x0000000000002be0       0xe0 cpu/mips/libmips.a(jz4775_nand.o)
 .pdr           0x0000000000002cc0       0xc0 cpu/mips/libmips.a(jz4775_eth.o)
 .pdr           0x0000000000002d80     0x1920 cpu/mips/libmips.a(synopGMAC_Dev.o)
 .pdr           0x00000000000046a0       0x60 cpu/mips/libmips.a(jz4775_ddr.o)
 .pdr           0x0000000000004700       0xe0 cpu/mips/libmips.a(jz4775_lcd.o)
 .pdr           0x00000000000047e0       0x40 cpu/mips/libmips.a(jz_ddr3_init.o)
 .pdr           0x0000000000004820       0x40 lib_mips/libmips.a(mips_linux.o)
 .pdr           0x0000000000004860       0x20 drivers/nand/libnand.a(nand.o)
 .pdr           0x0000000000004880       0xe0 drivers/nand/libnand.a(nand_util.o)
 .pdr           0x0000000000004960      0x4e0 drivers/nand/libnand.a(nand_base_jz4775.o)
 .pdr           0x0000000000004e40       0x20 drivers/nand/libnand.a(nand_ids.o)
 .pdr           0x0000000000004e60       0x40 drivers/nand/libnand.a(nand_ecc.o)
 .pdr           0x0000000000004ea0      0x160 drivers/nand/libnand.a(nand_bbt.o)
 .pdr           0x0000000000005000       0x20 /usr/local/mips-tools/mipseltools-gcc412-glibc261/bin/../lib/gcc/mipsel-linux/4.1.2/libgcc.a(_udivdi3.o)
 .pdr           0x0000000000005020        0x0 /usr/local/mips-tools/mipseltools-gcc412-glibc261/bin/../lib/gcc/mipsel-linux/4.1.2/libgcc.a(_clz.o)

.debug_line     0x0000000000000000       0xa5
 .debug_line    0x0000000000000000       0xa5 cpu/mips/start.o

.debug_info     0x0000000000000000       0x62
 .debug_info    0x0000000000000000       0x62 cpu/mips/start.o

.debug_abbrev   0x0000000000000000       0x14
 .debug_abbrev  0x0000000000000000       0x14 cpu/mips/start.o

.debug_aranges  0x0000000000000000       0x20
 .debug_aranges
                0x0000000000000000       0x20 cpu/mips/start.o

.mdebug.abi32   0x0000000000000000        0x0
 .mdebug.abi32  0x0000000000000000        0x0 lib_mips/libmips.a(board.o)
 .mdebug.abi32  0x0000000000000000        0x0 net/libnet.a(net.o)
 .mdebug.abi32  0x0000000000000000        0x0 net/libnet.a(tftp.o)
 .mdebug.abi32  0x0000000000000000        0x0 net/libnet.a(bootp.o)
 .mdebug.abi32  0x0000000000000000        0x0 net/libnet.a(rarp.o)
 .mdebug.abi32  0x0000000000000000        0x0 net/libnet.a(eth.o)
 .mdebug.abi32  0x0000000000000000        0x0 net/libnet.a(nfs.o)
 .mdebug.abi32  0x0000000000000000        0x0 post/ingenic/libingenic_post.a(jz_post.o)
 .mdebug.abi32  0x0000000000000000        0x0 post/ingenic/libingenic_post.a(jz_tests.o)
 .mdebug.abi32  0x0000000000000000        0x0 post/ingenic/libingenic_post.a(memory.o)
 .mdebug.abi32  0x0000000000000000        0x0 common/libcommon.a(main.o)
 .mdebug.abi32  0x0000000000000000        0x0 common/libcommon.a(cmd_autoscript.o)
 .mdebug.abi32  0x0000000000000000        0x0 common/libcommon.a(cmd_bdinfo.o)
 .mdebug.abi32  0x0000000000000000        0x0 common/libcommon.a(cmd_boot.o)
 .mdebug.abi32  0x0000000000000000        0x0 common/libcommon.a(cmd_bootm.o)
 .mdebug.abi32  0x0000000000000000        0x0 common/libcommon.a(cmd_console.o)
 .mdebug.abi32  0x0000000000000000        0x0 common/libcommon.a(cmd_diag.o)
 .mdebug.abi32  0x0000000000000000        0x0 common/libcommon.a(cmd_flash.o)
 .mdebug.abi32  0x0000000000000000        0x0 common/libcommon.a(cmd_itest.o)
 .mdebug.abi32  0x0000000000000000        0x0 common/libcommon.a(cmd_load.o)
 .mdebug.abi32  0x0000000000000000        0x0 common/libcommon.a(cmd_mem.o)
 .mdebug.abi32  0x0000000000000000        0x0 common/libcommon.a(cmd_misc.o)
 .mdebug.abi32  0x0000000000000000        0x0 common/libcommon.a(cmd_msc.o)
 .mdebug.abi32  0x0000000000000000        0x0 common/libcommon.a(cmd_nand.o)
 .mdebug.abi32  0x0000000000000000        0x0 common/libcommon.a(cmd_net.o)
 .mdebug.abi32  0x0000000000000000        0x0 common/libcommon.a(cmd_nvedit.o)
 .mdebug.abi32  0x0000000000000000        0x0 common/libcommon.a(cmd_ftest.o)
 .mdebug.abi32  0x0000000000000000        0x0 common/libcommon.a(command.o)
 .mdebug.abi32  0x0000000000000000        0x0 common/libcommon.a(console.o)
 .mdebug.abi32  0x0000000000000000        0x0 common/libcommon.a(devices.o)
 .mdebug.abi32  0x0000000000000000        0x0 common/libcommon.a(dlmalloc.o)
 .mdebug.abi32  0x0000000000000000        0x0 common/libcommon.a(env_common.o)
 .mdebug.abi32  0x0000000000000000        0x0 common/libcommon.a(env_msc.o)
 .mdebug.abi32  0x0000000000000000        0x0 common/libcommon.a(exports.o)
 .mdebug.abi32  0x0000000000000000        0x0 common/libcommon.a(flash.o)
 .mdebug.abi32  0x0000000000000000        0x0 common/libcommon.a(lcd.o)
 .mdebug.abi32  0x0000000000000000        0x0 common/libcommon.a(lists.o)
 .mdebug.abi32  0x0000000000000000        0x0 common/libcommon.a(s_record.o)
 .mdebug.abi32  0x0000000000000000        0x0 common/libcommon.a(xyzModem.o)
 .mdebug.abi32  0x0000000000000000        0x0 common/libcommon.a(crc16.o)
 .mdebug.abi32  0x0000000000000000        0x0 lib_generic/libgeneric.a(crc32.o)
 .mdebug.abi32  0x0000000000000000        0x0 lib_generic/libgeneric.a(display_options.o)
 .mdebug.abi32  0x0000000000000000        0x0 lib_generic/libgeneric.a(string.o)
 .mdebug.abi32  0x0000000000000000        0x0 lib_generic/libgeneric.a(vsprintf.o)
 .mdebug.abi32  0x0000000000000000        0x0 lib_generic/libgeneric.a(zlib.o)
 .mdebug.abi32  0x0000000000000000        0x0 lib_generic/libgeneric.a(ctype.o)
 .mdebug.abi32  0x0000000000000000        0x0 board/mensa/libmensa.a(mensa.o)
 .mdebug.abi32  0x0000000000000000        0x0 board/mensa/libmensa.a(flash.o)
 .mdebug.abi32  0x0000000000000000        0x0 cpu/mips/libmips.a(jz_serial.o)
 .mdebug.abi32  0x0000000000000000        0x0 cpu/mips/libmips.a(cpu.o)
 .mdebug.abi32  0x0000000000000000        0x0 cpu/mips/libmips.a(interrupts.o)
 .mdebug.abi32  0x0000000000000000        0x0 cpu/mips/libmips.a(jz4775.o)
 .mdebug.abi32  0x0000000000000000        0x0 cpu/mips/libmips.a(jz4775_nand.o)
 .mdebug.abi32  0x0000000000000000        0x0 cpu/mips/libmips.a(jz4775_eth.o)
 .mdebug.abi32  0x0000000000000000        0x0 cpu/mips/libmips.a(synopGMAC_Dev.o)
 .mdebug.abi32  0x0000000000000000        0x0 cpu/mips/libmips.a(jz4775_ddr.o)
 .mdebug.abi32  0x0000000000000000        0x0 cpu/mips/libmips.a(jz4775_lcd.o)
 .mdebug.abi32  0x0000000000000000        0x0 cpu/mips/libmips.a(jz_ddr3_init.o)
 .mdebug.abi32  0x0000000000000000        0x0 lib_mips/libmips.a(mips_linux.o)
 .mdebug.abi32  0x0000000000000000        0x0 drivers/nand/libnand.a(nand.o)
 .mdebug.abi32  0x0000000000000000        0x0 drivers/nand/libnand.a(nand_util.o)
 .mdebug.abi32  0x0000000000000000        0x0 drivers/nand/libnand.a(nand_base_jz4775.o)
 .mdebug.abi32  0x0000000000000000        0x0 drivers/nand/libnand.a(nand_ids.o)
 .mdebug.abi32  0x0000000000000000        0x0 drivers/nand/libnand.a(nand_ecc.o)
 .mdebug.abi32  0x0000000000000000        0x0 drivers/nand/libnand.a(nand_bbt.o)
 .mdebug.abi32  0x0000000000000000        0x0 /usr/local/mips-tools/mipseltools-gcc412-glibc261/bin/../lib/gcc/mipsel-linux/4.1.2/libgcc.a(_udivdi3.o)
 .mdebug.abi32  0x0000000000000000        0x0 /usr/local/mips-tools/mipseltools-gcc412-glibc261/bin/../lib/gcc/mipsel-linux/4.1.2/libgcc.a(_clz.o)

.debug_abbrev.1
                0x0000000000000000      0x287
 .debug_abbrev  0x0000000000000000      0x287 lib_mips/libmips.a(board.o)

.debug_info.2   0x0000000000000000      0x6ce
 .debug_info    0x0000000000000000      0x6ce lib_mips/libmips.a(board.o)

.debug_line.3   0x0000000000000000      0x244
 .debug_line    0x0000000000000000      0x244 lib_mips/libmips.a(board.o)

.debug_frame    0x0000000000000000     0x3de4
 .debug_frame   0x0000000000000000       0xc4 lib_mips/libmips.a(board.o)
 .debug_frame   0x00000000000000c4      0x2ac net/libnet.a(net.o)
 .debug_frame   0x0000000000000370       0x88 net/libnet.a(tftp.o)
 .debug_frame   0x00000000000003f8       0xe4 net/libnet.a(bootp.o)
 .debug_frame   0x00000000000004dc       0x5c net/libnet.a(rarp.o)
 .debug_frame   0x0000000000000538      0x150 net/libnet.a(eth.o)
 .debug_frame   0x0000000000000688      0x138 net/libnet.a(nfs.o)
 .debug_frame   0x00000000000007c0       0xd8 post/ingenic/libingenic_post.a(jz_post.o)
 .debug_frame   0x0000000000000898      0x118 post/ingenic/libingenic_post.a(memory.o)
 .debug_frame   0x00000000000009b0       0xc8 common/libcommon.a(main.o)
 .debug_frame   0x0000000000000a78       0x48 common/libcommon.a(cmd_autoscript.o)
 .debug_frame   0x0000000000000ac0       0x44 common/libcommon.a(cmd_bdinfo.o)
 .debug_frame   0x0000000000000b04       0x2c common/libcommon.a(cmd_boot.o)
 .debug_frame   0x0000000000000b30      0x124 common/libcommon.a(cmd_bootm.o)
 .debug_frame   0x0000000000000c54       0x38 common/libcommon.a(cmd_console.o)
 .debug_frame   0x0000000000000c8c       0x30 common/libcommon.a(cmd_diag.o)
 .debug_frame   0x0000000000000cbc      0x104 common/libcommon.a(cmd_flash.o)
 .debug_frame   0x0000000000000dc0       0x78 common/libcommon.a(cmd_itest.o)
 .debug_frame   0x0000000000000e38      0x194 common/libcommon.a(cmd_load.o)
 .debug_frame   0x0000000000000fcc      0x190 common/libcommon.a(cmd_mem.o)
 .debug_frame   0x000000000000115c       0x30 common/libcommon.a(cmd_misc.o)
 .debug_frame   0x000000000000118c       0x94 common/libcommon.a(cmd_msc.o)
 .debug_frame   0x0000000000001220       0xb8 common/libcommon.a(cmd_nand.o)
 .debug_frame   0x00000000000012d8       0x9c common/libcommon.a(cmd_net.o)
 .debug_frame   0x0000000000001374      0x13c common/libcommon.a(cmd_nvedit.o)
 .debug_frame   0x00000000000014b0       0x64 common/libcommon.a(cmd_ftest.o)
 .debug_frame   0x0000000000001514       0x98 common/libcommon.a(command.o)
 .debug_frame   0x00000000000015ac      0x1c8 common/libcommon.a(console.o)
 .debug_frame   0x0000000000001774       0x58 common/libcommon.a(devices.o)
 .debug_frame   0x00000000000017cc      0x128 common/libcommon.a(dlmalloc.o)
 .debug_frame   0x00000000000018f4       0x78 common/libcommon.a(env_common.o)
 .debug_frame   0x000000000000196c       0x5c common/libcommon.a(env_msc.o)
 .debug_frame   0x00000000000019c8       0x48 common/libcommon.a(exports.o)
 .debug_frame   0x0000000000001a10       0x64 common/libcommon.a(flash.o)
 .debug_frame   0x0000000000001a74       0xbc common/libcommon.a(lcd.o)
 .debug_frame   0x0000000000001b30      0x12c common/libcommon.a(lists.o)
 .debug_frame   0x0000000000001c5c       0x64 common/libcommon.a(s_record.o)
 .debug_frame   0x0000000000001cc0      0x118 common/libcommon.a(xyzModem.o)
 .debug_frame   0x0000000000001dd8       0x20 common/libcommon.a(crc16.o)
 .debug_frame   0x0000000000001df8       0x30 lib_generic/libgeneric.a(crc32.o)
 .debug_frame   0x0000000000001e28       0x44 lib_generic/libgeneric.a(display_options.o)
 .debug_frame   0x0000000000001e6c      0x16c lib_generic/libgeneric.a(string.o)
 .debug_frame   0x0000000000001fd8       0xb0 lib_generic/libgeneric.a(vsprintf.o)
 .debug_frame   0x0000000000002088      0x1cc lib_generic/libgeneric.a(zlib.o)
 .debug_frame   0x0000000000002254       0x3c board/mensa/libmensa.a(mensa.o)
 .debug_frame   0x0000000000002290       0xa0 board/mensa/libmensa.a(flash.o)
 .debug_frame   0x0000000000002330       0xc0 cpu/mips/libmips.a(jz_serial.o)
 .debug_frame   0x00000000000023f0       0x80 cpu/mips/libmips.a(cpu.o)
 .debug_frame   0x0000000000002470       0x30 cpu/mips/libmips.a(interrupts.o)
 .debug_frame   0x00000000000024a0      0x158 cpu/mips/libmips.a(jz4775.o)
 .debug_frame   0x00000000000025f8       0xa8 cpu/mips/libmips.a(jz4775_nand.o)
 .debug_frame   0x00000000000026a0       0xe8 cpu/mips/libmips.a(jz4775_eth.o)
 .debug_frame   0x0000000000002788      0xda8 cpu/mips/libmips.a(synopGMAC_Dev.o)
 .debug_frame   0x0000000000003530       0x58 cpu/mips/libmips.a(jz4775_ddr.o)
 .debug_frame   0x0000000000003588       0xb0 cpu/mips/libmips.a(jz4775_lcd.o)
 .debug_frame   0x0000000000003638       0x40 cpu/mips/libmips.a(jz_ddr3_init.o)
 .debug_frame   0x0000000000003678       0x58 lib_mips/libmips.a(mips_linux.o)
 .debug_frame   0x00000000000036d0       0x2c drivers/nand/libnand.a(nand.o)
 .debug_frame   0x00000000000036fc      0x100 drivers/nand/libnand.a(nand_util.o)
 .debug_frame   0x00000000000037fc      0x3f4 drivers/nand/libnand.a(nand_base_jz4775.o)
 .debug_frame   0x0000000000003bf0       0x20 drivers/nand/libnand.a(nand_ids.o)
 .debug_frame   0x0000000000003c10       0x30 drivers/nand/libnand.a(nand_ecc.o)
 .debug_frame   0x0000000000003c40      0x184 drivers/nand/libnand.a(nand_bbt.o)
 .debug_frame   0x0000000000003dc4       0x20 /usr/local/mips-tools/mipseltools-gcc412-glibc261/bin/../lib/gcc/mipsel-linux/4.1.2/libgcc.a(_udivdi3.o)

.debug_loc      0x0000000000000000    0x1faf1
 .debug_loc     0x0000000000000000      0x28c lib_mips/libmips.a(board.o)
 .debug_loc     0x000000000000028c      0xde5 net/libnet.a(net.o)
 .debug_loc     0x0000000000001071      0x3f3 net/libnet.a(tftp.o)
 .debug_loc     0x0000000000001464      0x6ee net/libnet.a(bootp.o)
 .debug_loc     0x0000000000001b52      0x134 net/libnet.a(rarp.o)
 .debug_loc     0x0000000000001c86      0x6a5 net/libnet.a(eth.o)
 .debug_loc     0x000000000000232b      0x714 net/libnet.a(nfs.o)
 .debug_loc     0x0000000000002a3f      0x3fd post/ingenic/libingenic_post.a(jz_post.o)
 .debug_loc     0x0000000000002e3c      0xc7c post/ingenic/libingenic_post.a(memory.o)
 .debug_loc     0x0000000000003ab8      0xa0b common/libcommon.a(main.o)
 .debug_loc     0x00000000000044c3      0x253 common/libcommon.a(cmd_autoscript.o)
 .debug_loc     0x0000000000004716       0xf9 common/libcommon.a(cmd_bdinfo.o)
 .debug_loc     0x000000000000480f       0xf1 common/libcommon.a(cmd_boot.o)
 .debug_loc     0x0000000000004900      0xc08 common/libcommon.a(cmd_bootm.o)
 .debug_loc     0x0000000000005508       0xa8 common/libcommon.a(cmd_console.o)
 .debug_loc     0x00000000000055b0      0x1cd common/libcommon.a(cmd_diag.o)
 .debug_loc     0x000000000000577d     0x103a common/libcommon.a(cmd_flash.o)
 .debug_loc     0x00000000000067b7      0x4d1 common/libcommon.a(cmd_itest.o)
 .debug_loc     0x0000000000006c88      0xdf1 common/libcommon.a(cmd_load.o)
 .debug_loc     0x0000000000007a79     0x125b common/libcommon.a(cmd_mem.o)
 .debug_loc     0x0000000000008cd4       0xe9 common/libcommon.a(cmd_misc.o)
 .debug_loc     0x0000000000008dbd      0x7d7 common/libcommon.a(cmd_msc.o)
 .debug_loc     0x0000000000009594     0x1d86 common/libcommon.a(cmd_nand.o)
 .debug_loc     0x000000000000b31a      0x4c2 common/libcommon.a(cmd_net.o)
 .debug_loc     0x000000000000b7dc     0x1065 common/libcommon.a(cmd_nvedit.o)
 .debug_loc     0x000000000000c841      0x597 common/libcommon.a(cmd_ftest.o)
 .debug_loc     0x000000000000cdd8      0x617 common/libcommon.a(command.o)
 .debug_loc     0x000000000000d3ef      0x572 common/libcommon.a(console.o)
 .debug_loc     0x000000000000d961       0xa2 common/libcommon.a(devices.o)
 .debug_loc     0x000000000000da03     0x17ac common/libcommon.a(dlmalloc.o)
 .debug_loc     0x000000000000f1af       0x83 common/libcommon.a(env_common.o)
 .debug_loc     0x000000000000f232       0x5e common/libcommon.a(env_msc.o)
 .debug_loc     0x000000000000f290       0x1f common/libcommon.a(exports.o)
 .debug_loc     0x000000000000f2af      0x3b5 common/libcommon.a(flash.o)
 .debug_loc     0x000000000000f664      0x2f5 common/libcommon.a(lcd.o)
 .debug_loc     0x000000000000f959      0x51d common/libcommon.a(lists.o)
 .debug_loc     0x000000000000fe76      0x43e common/libcommon.a(s_record.o)
 .debug_loc     0x00000000000102b4      0x69c common/libcommon.a(xyzModem.o)
 .debug_loc     0x0000000000010950       0x1e common/libcommon.a(crc16.o)
 .debug_loc     0x000000000001096e      0x154 lib_generic/libgeneric.a(crc32.o)
 .debug_loc     0x0000000000010ac2       0xbe lib_generic/libgeneric.a(display_options.o)
 .debug_loc     0x0000000000010b80      0x5fb lib_generic/libgeneric.a(string.o)
 .debug_loc     0x000000000001117b      0x8d2 lib_generic/libgeneric.a(vsprintf.o)
 .debug_loc     0x0000000000011a4d     0x36a2 lib_generic/libgeneric.a(zlib.o)
 .debug_loc     0x00000000000150ef       0x81 board/mensa/libmensa.a(mensa.o)
 .debug_loc     0x0000000000015170      0x44f board/mensa/libmensa.a(flash.o)
 .debug_loc     0x00000000000155bf      0x1de cpu/mips/libmips.a(jz_serial.o)
 .debug_loc     0x000000000001579d       0xbb cpu/mips/libmips.a(cpu.o)
 .debug_loc     0x0000000000015858      0x368 cpu/mips/libmips.a(jz4775.o)
 .debug_loc     0x0000000000015bc0      0x2b8 cpu/mips/libmips.a(jz4775_nand.o)
 .debug_loc     0x0000000000015e78      0x4af cpu/mips/libmips.a(jz4775_eth.o)
 .debug_loc     0x0000000000016327     0x220d cpu/mips/libmips.a(synopGMAC_Dev.o)
 .debug_loc     0x0000000000018534      0x88f cpu/mips/libmips.a(jz4775_ddr.o)
 .debug_loc     0x0000000000018dc3      0x772 cpu/mips/libmips.a(jz4775_lcd.o)
 .debug_loc     0x0000000000019535      0x406 cpu/mips/libmips.a(jz_ddr3_init.o)
 .debug_loc     0x000000000001993b      0x45b lib_mips/libmips.a(mips_linux.o)
 .debug_loc     0x0000000000019d96       0x32 drivers/nand/libnand.a(nand.o)
 .debug_loc     0x0000000000019dc8      0xf70 drivers/nand/libnand.a(nand_util.o)
 .debug_loc     0x000000000001ad38     0x2982 drivers/nand/libnand.a(nand_base_jz4775.o)
 .debug_loc     0x000000000001d6ba      0x252 drivers/nand/libnand.a(nand_ecc.o)
 .debug_loc     0x000000000001d90c     0x1823 drivers/nand/libnand.a(nand_bbt.o)
 .debug_loc     0x000000000001f12f      0x9c2 /usr/local/mips-tools/mipseltools-gcc412-glibc261/bin/../lib/gcc/mipsel-linux/4.1.2/libgcc.a(_udivdi3.o)

.debug_pubnames
                0x0000000000000000     0x3e00
 .debug_pubnames
                0x0000000000000000       0x88 lib_mips/libmips.a(board.o)
 .debug_pubnames
                0x0000000000000088      0x40c net/libnet.a(net.o)
 .debug_pubnames
                0x0000000000000494       0x20 net/libnet.a(tftp.o)
 .debug_pubnames
                0x00000000000004b4       0x82 net/libnet.a(bootp.o)
 .debug_pubnames
                0x0000000000000536       0x2e net/libnet.a(rarp.o)
 .debug_pubnames
                0x0000000000000564       0xf4 net/libnet.a(eth.o)
 .debug_pubnames
                0x0000000000000658       0x1f net/libnet.a(nfs.o)
 .debug_pubnames
                0x0000000000000677       0x60 post/ingenic/libingenic_post.a(jz_post.o)
 .debug_pubnames
                0x00000000000006d7       0x33 post/ingenic/libingenic_post.a(jz_tests.o)
 .debug_pubnames
                0x000000000000070a       0x60 post/ingenic/libingenic_post.a(memory.o)
 .debug_pubnames
                0x000000000000076a       0x5b common/libcommon.a(main.o)
 .debug_pubnames
                0x00000000000007c5       0x4c common/libcommon.a(cmd_autoscript.o)
 .debug_pubnames
                0x0000000000000811       0x3f common/libcommon.a(cmd_bdinfo.o)
 .debug_pubnames
                0x0000000000000850       0x47 common/libcommon.a(cmd_boot.o)
 .debug_pubnames
                0x0000000000000897       0xeb common/libcommon.a(cmd_bootm.o)
 .debug_pubnames
                0x0000000000000982       0x3a common/libcommon.a(cmd_console.o)
 .debug_pubnames
                0x00000000000009bc       0x34 common/libcommon.a(cmd_diag.o)
 .debug_pubnames
                0x00000000000009f0       0xb2 common/libcommon.a(cmd_flash.o)
 .debug_pubnames
                0x0000000000000aa2       0x53 common/libcommon.a(cmd_itest.o)
 .debug_pubnames
                0x0000000000000af5      0x1d0 common/libcommon.a(cmd_load.o)
 .debug_pubnames
                0x0000000000000cc5      0x1e7 common/libcommon.a(cmd_mem.o)
 .debug_pubnames
                0x0000000000000eac       0x36 common/libcommon.a(cmd_misc.o)
 .debug_pubnames
                0x0000000000000ee2       0x4d common/libcommon.a(cmd_msc.o)
 .debug_pubnames
                0x0000000000000f2f       0x70 common/libcommon.a(cmd_nand.o)
 .debug_pubnames
                0x0000000000000f9f       0xe8 common/libcommon.a(cmd_net.o)
 .debug_pubnames
                0x0000000000001087       0xfe common/libcommon.a(cmd_nvedit.o)
 .debug_pubnames
                0x0000000000001185       0x5d common/libcommon.a(cmd_ftest.o)
 .debug_pubnames
                0x00000000000011e2       0xaa common/libcommon.a(command.o)
 .debug_pubnames
                0x000000000000128c      0x115 common/libcommon.a(console.o)
 .debug_pubnames
                0x00000000000013a1       0x7d common/libcommon.a(devices.o)
 .debug_pubnames
                0x000000000000141e       0xba common/libcommon.a(dlmalloc.o)
 .debug_pubnames
                0x00000000000014d8       0xac common/libcommon.a(env_common.o)
 .debug_pubnames
                0x0000000000001584       0x7c common/libcommon.a(env_msc.o)
 .debug_pubnames
                0x0000000000001600       0x3c common/libcommon.a(exports.o)
 .debug_pubnames
                0x000000000000163c       0x53 common/libcommon.a(flash.o)
 .debug_pubnames
                0x000000000000168f       0xf6 common/libcommon.a(lcd.o)
 .debug_pubnames
                0x0000000000001785      0x116 common/libcommon.a(lists.o)
 .debug_pubnames
                0x000000000000189b       0x22 common/libcommon.a(s_record.o)
 .debug_pubnames
                0x00000000000018bd       0xd5 common/libcommon.a(xyzModem.o)
 .debug_pubnames
                0x0000000000001992       0x20 common/libcommon.a(crc16.o)
 .debug_pubnames
                0x00000000000019b2       0x2e lib_generic/libgeneric.a(crc32.o)
 .debug_pubnames
                0x00000000000019e0       0x35 lib_generic/libgeneric.a(display_options.o)
 .debug_pubnames
                0x0000000000001a15       0xec lib_generic/libgeneric.a(string.o)
 .debug_pubnames
                0x0000000000001b01       0x5a lib_generic/libgeneric.a(vsprintf.o)
 .debug_pubnames
                0x0000000000001b5b       0xab lib_generic/libgeneric.a(zlib.o)
 .debug_pubnames
                0x0000000000001c06       0x1d lib_generic/libgeneric.a(ctype.o)
 .debug_pubnames
                0x0000000000001c23       0x36 board/mensa/libmensa.a(mensa.o)
 .debug_pubnames
                0x0000000000001c59       0x64 board/mensa/libmensa.a(flash.o)
 .debug_pubnames
                0x0000000000001cbd       0x9a cpu/mips/libmips.a(jz_serial.o)
 .debug_pubnames
                0x0000000000001d57       0x7f cpu/mips/libmips.a(cpu.o)
 .debug_pubnames
                0x0000000000001dd6       0x3f cpu/mips/libmips.a(interrupts.o)
 .debug_pubnames
                0x0000000000001e15      0x123 cpu/mips/libmips.a(jz4775.o)
 .debug_pubnames
                0x0000000000001f38       0x43 cpu/mips/libmips.a(jz4775_nand.o)
 .debug_pubnames
                0x0000000000001f7b       0x3a cpu/mips/libmips.a(jz4775_eth.o)
 .debug_pubnames
                0x0000000000001fb5     0x1a45 cpu/mips/libmips.a(synopGMAC_Dev.o)
 .debug_pubnames
                0x00000000000039fa       0x3d cpu/mips/libmips.a(jz4775_ddr.o)
 .debug_pubnames
                0x0000000000003a37      0x122 cpu/mips/libmips.a(jz4775_lcd.o)
 .debug_pubnames
                0x0000000000003b59       0x34 cpu/mips/libmips.a(jz_ddr3_init.o)
 .debug_pubnames
                0x0000000000003b8d       0x2c lib_mips/libmips.a(mips_linux.o)
 .debug_pubnames
                0x0000000000003bb9       0x43 drivers/nand/libnand.a(nand.o)
 .debug_pubnames
                0x0000000000003bfc       0x84 drivers/nand/libnand.a(nand_util.o)
 .debug_pubnames
                0x0000000000003c80       0x57 drivers/nand/libnand.a(nand_base_jz4775.o)
 .debug_pubnames
                0x0000000000003cd7       0x4a drivers/nand/libnand.a(nand_ids.o)
 .debug_pubnames
                0x0000000000003d21       0x3f drivers/nand/libnand.a(nand_ecc.o)
 .debug_pubnames
                0x0000000000003d60       0x60 drivers/nand/libnand.a(nand_bbt.o)
 .debug_pubnames
                0x0000000000003dc0       0x20 /usr/local/mips-tools/mipseltools-gcc412-glibc261/bin/../lib/gcc/mipsel-linux/4.1.2/libgcc.a(_udivdi3.o)
 .debug_pubnames
                0x0000000000003de0       0x20 /usr/local/mips-tools/mipseltools-gcc412-glibc261/bin/../lib/gcc/mipsel-linux/4.1.2/libgcc.a(_clz.o)

.debug_aranges.4
                0x0000000000000000       0x20
 .debug_aranges
                0x0000000000000000       0x20 lib_mips/libmips.a(board.o)

.debug_str      0x0000000000000000     0x6ce0
 .debug_str     0x0000000000000000      0x355 lib_mips/libmips.a(board.o)
                                        0x3c2 (松开之前的大小)
 .debug_str     0x0000000000000355      0x65c net/libnet.a(net.o)
                                        0x886 (松开之前的大小)
 .debug_str     0x00000000000009b1      0x11a net/libnet.a(tftp.o)
                                        0x2df (松开之前的大小)
 .debug_str     0x0000000000000acb      0x252 net/libnet.a(bootp.o)
                                        0x453 (松开之前的大小)
 .debug_str     0x0000000000000d1d       0x4c net/libnet.a(rarp.o)
                                        0x1b5 (松开之前的大小)
 .debug_str     0x0000000000000d69      0x140 net/libnet.a(eth.o)
                                        0x302 (松开之前的大小)
 .debug_str     0x0000000000000ea9      0x263 net/libnet.a(nfs.o)
                                        0x483 (松开之前的大小)
 .debug_str     0x000000000000110c       0xdd post/ingenic/libingenic_post.a(jz_post.o)
                                        0x2e1 (松开之前的大小)
 .debug_str     0x00000000000011e9        0xb post/ingenic/libingenic_post.a(jz_tests.o)
                                        0x127 (松开之前的大小)
 .debug_str     0x00000000000011f4      0x235 post/ingenic/libingenic_post.a(memory.o)
                                        0x46a (松开之前的大小)
 .debug_str     0x0000000000001429      0x142 common/libcommon.a(main.o)
                                        0x25f (松开之前的大小)
 .debug_str     0x000000000000156b       0xc2 common/libcommon.a(cmd_autoscript.o)
                                        0x22a (松开之前的大小)
 .debug_str     0x000000000000162d       0x35 common/libcommon.a(cmd_bdinfo.o)
                                        0x269 (松开之前的大小)
 .debug_str     0x0000000000001662       0x34 common/libcommon.a(cmd_boot.o)
                                        0x15b (松开之前的大小)
 .debug_str     0x0000000000001696      0x1f9 common/libcommon.a(cmd_bootm.o)
                                        0x5ab (松开之前的大小)
 .debug_str     0x000000000000188f       0xc0 common/libcommon.a(cmd_console.o)
                                        0x1fa (松开之前的大小)
 .debug_str     0x000000000000194f       0x25 common/libcommon.a(cmd_diag.o)
                                        0x152 (松开之前的大小)
 .debug_str     0x0000000000001974      0x142 common/libcommon.a(cmd_flash.o)
                                        0x2ef (松开之前的大小)
 .debug_str     0x0000000000001ab6       0xa0 common/libcommon.a(cmd_itest.o)
                                        0x1dd (松开之前的大小)
 .debug_str     0x0000000000001b56      0x322 common/libcommon.a(cmd_load.o)
                                        0x5fd (松开之前的大小)
 .debug_str     0x0000000000001e78      0x213 common/libcommon.a(cmd_mem.o)
                                        0x38f (松开之前的大小)
 .debug_str     0x000000000000208b       0x27 common/libcommon.a(cmd_misc.o)
                                        0x14f (松开之前的大小)
 .debug_str     0x00000000000020b2      0x125 common/libcommon.a(cmd_msc.o)
                                        0x29b (松开之前的大小)
 .debug_str     0x00000000000021d7      0x4f6 common/libcommon.a(cmd_nand.o)
                                        0x8d6 (松开之前的大小)
 .debug_str     0x00000000000026cd       0xd2 common/libcommon.a(cmd_net.o)
                                        0x2e6 (松开之前的大小)
 .debug_str     0x000000000000279f       0xfb common/libcommon.a(cmd_nvedit.o)
                                        0x3fd (松开之前的大小)
 .debug_str     0x000000000000289a       0xb5 common/libcommon.a(cmd_ftest.o)
                                        0x696 (松开之前的大小)
 .debug_str     0x000000000000294f       0xad common/libcommon.a(command.o)
                                        0x242 (松开之前的大小)
 .debug_str     0x00000000000029fc       0xcb common/libcommon.a(console.o)
                                        0x3e8 (松开之前的大小)
 .debug_str     0x0000000000002ac7       0x56 common/libcommon.a(devices.o)
                                        0x30f (松开之前的大小)
 .debug_str     0x0000000000002b1d      0x2a3 common/libcommon.a(dlmalloc.o)
                                        0x4f5 (松开之前的大小)
 .debug_str     0x0000000000002dc0       0xa5 common/libcommon.a(env_common.o)
                                        0x29f (松开之前的大小)
 .debug_str     0x0000000000002e65       0x54 common/libcommon.a(env_msc.o)
                                        0x2ac (松开之前的大小)
 .debug_str     0x0000000000002eb9       0x25 common/libcommon.a(exports.o)
                                        0x207 (松开之前的大小)
 .debug_str     0x0000000000002ede       0x46 common/libcommon.a(flash.o)
                                        0x193 (松开之前的大小)
 .debug_str     0x0000000000002f24      0x2b8 common/libcommon.a(lcd.o)
                                        0x594 (松开之前的大小)
 .debug_str     0x00000000000031dc      0x1dc common/libcommon.a(lists.o)
                                        0x31e (松开之前的大小)
 .debug_str     0x00000000000033b8       0x3a common/libcommon.a(s_record.o)
                                        0x120 (松开之前的大小)
 .debug_str     0x00000000000033f2      0x1a9 common/libcommon.a(xyzModem.o)
                                        0x2e1 (松开之前的大小)
 .debug_str     0x000000000000359b       0x25 common/libcommon.a(crc16.o)
                                         0xfb (松开之前的大小)
 .debug_str     0x00000000000035c0       0x5e lib_generic/libgeneric.a(crc32.o)
                                        0x118 (松开之前的大小)
 .debug_str     0x000000000000361e       0x2d lib_generic/libgeneric.a(display_options.o)
                                        0x116 (松开之前的大小)
 .debug_str     0x000000000000364b       0x9e lib_generic/libgeneric.a(string.o)
                                        0x1be (松开之前的大小)
 .debug_str     0x00000000000036e9       0x79 lib_generic/libgeneric.a(vsprintf.o)
                                        0x1ac (松开之前的大小)
 .debug_str     0x0000000000003762      0x3a8 lib_generic/libgeneric.a(zlib.o)
                                        0x5be (松开之前的大小)
 .debug_str     0x0000000000003b0a        0x8 lib_generic/libgeneric.a(ctype.o)
                                         0x70 (松开之前的大小)
 .debug_str     0x0000000000003b12       0xb0 board/mensa/libmensa.a(mensa.o)
                                        0x261 (松开之前的大小)
 .debug_str     0x0000000000003bc2       0x58 board/mensa/libmensa.a(flash.o)
                                        0x1df (松开之前的大小)
 .debug_str     0x0000000000003c1a      0x12b cpu/mips/libmips.a(jz_serial.o)
                                        0x1c3 (松开之前的大小)
 .debug_str     0x0000000000003d45       0x65 cpu/mips/libmips.a(cpu.o)
                                        0x1ad (松开之前的大小)
 .debug_str     0x0000000000003daa       0x32 cpu/mips/libmips.a(interrupts.o)
                                         0xfe (松开之前的大小)
 .debug_str     0x0000000000003ddc      0x11f cpu/mips/libmips.a(jz4775.o)
                                        0x385 (松开之前的大小)
 .debug_str     0x0000000000003efb      0x11f cpu/mips/libmips.a(jz4775_nand.o)
                                        0x677 (松开之前的大小)
 .debug_str     0x000000000000401a      0x318 cpu/mips/libmips.a(jz4775_eth.o)
                                        0x56c (松开之前的大小)
 .debug_str     0x0000000000004332     0x1906 cpu/mips/libmips.a(synopGMAC_Dev.o)
                                       0x1c1b (松开之前的大小)
 .debug_str     0x0000000000005c38      0x142 cpu/mips/libmips.a(jz4775_ddr.o)
                                        0x2a9 (松开之前的大小)
 .debug_str     0x0000000000005d7a      0x150 cpu/mips/libmips.a(jz4775_lcd.o)
                                        0x419 (松开之前的大小)
 .debug_str     0x0000000000005eca       0x6c cpu/mips/libmips.a(jz_ddr3_init.o)
                                        0x158 (松开之前的大小)
 .debug_str     0x0000000000005f36       0xcc lib_mips/libmips.a(mips_linux.o)
                                        0x3f6 (松开之前的大小)
 .debug_str     0x0000000000006002       0x63 drivers/nand/libnand.a(nand.o)
                                        0x5b8 (松开之前的大小)
 .debug_str     0x0000000000006065      0x1e6 drivers/nand/libnand.a(nand_util.o)
                                        0x872 (松开之前的大小)
 .debug_str     0x000000000000624b      0x5a9 drivers/nand/libnand.a(nand_base_jz4775.o)
                                        0xbe6 (松开之前的大小)
 .debug_str     0x00000000000067f4       0x19 drivers/nand/libnand.a(nand_ids.o)
                                        0x1d8 (松开之前的大小)
 .debug_str     0x000000000000680d       0x68 drivers/nand/libnand.a(nand_ecc.o)
                                        0x399 (松开之前的大小)
 .debug_str     0x0000000000006875      0x224 drivers/nand/libnand.a(nand_bbt.o)
                                        0x7c7 (松开之前的大小)
 .debug_str     0x0000000000006a99      0x247 /usr/local/mips-tools/mipseltools-gcc412-glibc261/bin/../lib/gcc/mipsel-linux/4.1.2/libgcc.a(_udivdi3.o)
                                        0x326 (松开之前的大小)
 .debug_str     0x0000000000000000      0x2b8 /usr/local/mips-tools/mipseltools-gcc412-glibc261/bin/../lib/gcc/mipsel-linux/4.1.2/libgcc.a(_clz.o)

.comment        0x0000000000000000      0x4b6
 .comment       0x0000000000000000       0x12 lib_mips/libmips.a(board.o)
 .comment       0x0000000000000012       0x12 net/libnet.a(net.o)
 .comment       0x0000000000000024       0x12 net/libnet.a(tftp.o)
 .comment       0x0000000000000036       0x12 net/libnet.a(bootp.o)
 .comment       0x0000000000000048       0x12 net/libnet.a(rarp.o)
 .comment       0x000000000000005a       0x12 net/libnet.a(eth.o)
 .comment       0x000000000000006c       0x12 net/libnet.a(nfs.o)
 .comment       0x000000000000007e       0x12 post/ingenic/libingenic_post.a(jz_post.o)
 .comment       0x0000000000000090       0x12 post/ingenic/libingenic_post.a(jz_tests.o)
 .comment       0x00000000000000a2       0x12 post/ingenic/libingenic_post.a(memory.o)
 .comment       0x00000000000000b4       0x12 common/libcommon.a(main.o)
 .comment       0x00000000000000c6       0x12 common/libcommon.a(cmd_autoscript.o)
 .comment       0x00000000000000d8       0x12 common/libcommon.a(cmd_bdinfo.o)
 .comment       0x00000000000000ea       0x12 common/libcommon.a(cmd_boot.o)
 .comment       0x00000000000000fc       0x12 common/libcommon.a(cmd_bootm.o)
 .comment       0x000000000000010e       0x12 common/libcommon.a(cmd_console.o)
 .comment       0x0000000000000120       0x12 common/libcommon.a(cmd_diag.o)
 .comment       0x0000000000000132       0x12 common/libcommon.a(cmd_flash.o)
 .comment       0x0000000000000144       0x12 common/libcommon.a(cmd_itest.o)
 .comment       0x0000000000000156       0x12 common/libcommon.a(cmd_load.o)
 .comment       0x0000000000000168       0x12 common/libcommon.a(cmd_mem.o)
 .comment       0x000000000000017a       0x12 common/libcommon.a(cmd_misc.o)
 .comment       0x000000000000018c       0x12 common/libcommon.a(cmd_msc.o)
 .comment       0x000000000000019e       0x12 common/libcommon.a(cmd_nand.o)
 .comment       0x00000000000001b0       0x12 common/libcommon.a(cmd_net.o)
 .comment       0x00000000000001c2       0x12 common/libcommon.a(cmd_nvedit.o)
 .comment       0x00000000000001d4       0x12 common/libcommon.a(cmd_ftest.o)
 .comment       0x00000000000001e6       0x12 common/libcommon.a(command.o)
 .comment       0x00000000000001f8       0x12 common/libcommon.a(console.o)
 .comment       0x000000000000020a       0x12 common/libcommon.a(devices.o)
 .comment       0x000000000000021c       0x12 common/libcommon.a(dlmalloc.o)
 .comment       0x000000000000022e       0x12 common/libcommon.a(env_common.o)
 .comment       0x0000000000000240       0x12 common/libcommon.a(env_msc.o)
 .comment       0x0000000000000252       0x12 common/libcommon.a(exports.o)
 .comment       0x0000000000000264       0x12 common/libcommon.a(flash.o)
 .comment       0x0000000000000276       0x12 common/libcommon.a(lcd.o)
 .comment       0x0000000000000288       0x12 common/libcommon.a(lists.o)
 .comment       0x000000000000029a       0x12 common/libcommon.a(s_record.o)
 .comment       0x00000000000002ac       0x12 common/libcommon.a(xyzModem.o)
 .comment       0x00000000000002be       0x12 common/libcommon.a(crc16.o)
 .comment       0x00000000000002d0       0x12 lib_generic/libgeneric.a(crc32.o)
 .comment       0x00000000000002e2       0x12 lib_generic/libgeneric.a(display_options.o)
 .comment       0x00000000000002f4       0x12 lib_generic/libgeneric.a(string.o)
 .comment       0x0000000000000306       0x12 lib_generic/libgeneric.a(vsprintf.o)
 .comment       0x0000000000000318       0x12 lib_generic/libgeneric.a(zlib.o)
 .comment       0x000000000000032a       0x12 lib_generic/libgeneric.a(ctype.o)
 .comment       0x000000000000033c       0x12 board/mensa/libmensa.a(mensa.o)
 .comment       0x000000000000034e       0x12 board/mensa/libmensa.a(flash.o)
 .comment       0x0000000000000360       0x12 cpu/mips/libmips.a(jz_serial.o)
 .comment       0x0000000000000372       0x12 cpu/mips/libmips.a(cpu.o)
 .comment       0x0000000000000384       0x12 cpu/mips/libmips.a(interrupts.o)
 .comment       0x0000000000000396       0x12 cpu/mips/libmips.a(jz4775.o)
 .comment       0x00000000000003a8       0x12 cpu/mips/libmips.a(jz4775_nand.o)
 .comment       0x00000000000003ba       0x12 cpu/mips/libmips.a(jz4775_eth.o)
 .comment       0x00000000000003cc       0x12 cpu/mips/libmips.a(synopGMAC_Dev.o)
 .comment       0x00000000000003de       0x12 cpu/mips/libmips.a(jz4775_ddr.o)
 .comment       0x00000000000003f0       0x12 cpu/mips/libmips.a(jz4775_lcd.o)
 .comment       0x0000000000000402       0x12 cpu/mips/libmips.a(jz_ddr3_init.o)
 .comment       0x0000000000000414       0x12 lib_mips/libmips.a(mips_linux.o)
 .comment       0x0000000000000426       0x12 drivers/nand/libnand.a(nand.o)
 .comment       0x0000000000000438       0x12 drivers/nand/libnand.a(nand_util.o)
 .comment       0x000000000000044a       0x12 drivers/nand/libnand.a(nand_base_jz4775.o)
 .comment       0x000000000000045c       0x12 drivers/nand/libnand.a(nand_ids.o)
 .comment       0x000000000000046e       0x12 drivers/nand/libnand.a(nand_ecc.o)
 .comment       0x0000000000000480       0x12 drivers/nand/libnand.a(nand_bbt.o)
 .comment       0x0000000000000492       0x12 /usr/local/mips-tools/mipseltools-gcc412-glibc261/bin/../lib/gcc/mipsel-linux/4.1.2/libgcc.a(_udivdi3.o)
 .comment       0x00000000000004a4       0x12 /usr/local/mips-tools/mipseltools-gcc412-glibc261/bin/../lib/gcc/mipsel-linux/4.1.2/libgcc.a(_clz.o)

.debug_abbrev.5
                0x0000000000000000      0x44b
 .debug_abbrev  0x0000000000000000      0x44b net/libnet.a(net.o)

.debug_info.6   0x0000000000000000     0x1a18
 .debug_info    0x0000000000000000     0x1a18 net/libnet.a(net.o)

.debug_line.7   0x0000000000000000      0x7eb
 .debug_line    0x0000000000000000      0x7eb net/libnet.a(net.o)

.debug_aranges.8
                0x0000000000000000       0x20
 .debug_aranges
                0x0000000000000000       0x20 net/libnet.a(net.o)

.debug_ranges   0x0000000000000000     0x4ee8
 .debug_ranges  0x0000000000000000      0x1d8 net/libnet.a(net.o)
 .debug_ranges  0x00000000000001d8      0x130 net/libnet.a(tftp.o)
 .debug_ranges  0x0000000000000308      0x268 net/libnet.a(bootp.o)
 .debug_ranges  0x0000000000000570       0x78 net/libnet.a(eth.o)
 .debug_ranges  0x00000000000005e8      0x2f0 net/libnet.a(nfs.o)
 .debug_ranges  0x00000000000008d8       0x78 post/ingenic/libingenic_post.a(jz_post.o)
 .debug_ranges  0x0000000000000950      0x100 post/ingenic/libingenic_post.a(memory.o)
 .debug_ranges  0x0000000000000a50      0x180 common/libcommon.a(main.o)
 .debug_ranges  0x0000000000000bd0      0x100 common/libcommon.a(cmd_bootm.o)
 .debug_ranges  0x0000000000000cd0       0x18 common/libcommon.a(cmd_console.o)
 .debug_ranges  0x0000000000000ce8       0x30 common/libcommon.a(cmd_diag.o)
 .debug_ranges  0x0000000000000d18       0x98 common/libcommon.a(cmd_flash.o)
 .debug_ranges  0x0000000000000db0       0x60 common/libcommon.a(cmd_itest.o)
 .debug_ranges  0x0000000000000e10      0x2d8 common/libcommon.a(cmd_load.o)
 .debug_ranges  0x00000000000010e8       0x60 common/libcommon.a(cmd_mem.o)
 .debug_ranges  0x0000000000001148      0x228 common/libcommon.a(cmd_msc.o)
 .debug_ranges  0x0000000000001370      0x1f0 common/libcommon.a(cmd_nand.o)
 .debug_ranges  0x0000000000001560       0x58 common/libcommon.a(cmd_net.o)
 .debug_ranges  0x00000000000015b8       0xc8 common/libcommon.a(cmd_nvedit.o)
 .debug_ranges  0x0000000000001680       0xc0 common/libcommon.a(cmd_ftest.o)
 .debug_ranges  0x0000000000001740       0x70 common/libcommon.a(command.o)
 .debug_ranges  0x00000000000017b0       0x48 common/libcommon.a(console.o)
 .debug_ranges  0x00000000000017f8       0x30 common/libcommon.a(devices.o)
 .debug_ranges  0x0000000000001828      0x148 common/libcommon.a(dlmalloc.o)
 .debug_ranges  0x0000000000001970       0x28 common/libcommon.a(env_msc.o)
 .debug_ranges  0x0000000000001998       0x68 common/libcommon.a(flash.o)
 .debug_ranges  0x0000000000001a00       0x60 common/libcommon.a(lcd.o)
 .debug_ranges  0x0000000000001a60       0x18 common/libcommon.a(lists.o)
 .debug_ranges  0x0000000000001a78       0x30 common/libcommon.a(xyzModem.o)
 .debug_ranges  0x0000000000001aa8       0x30 lib_generic/libgeneric.a(string.o)
 .debug_ranges  0x0000000000001ad8       0x38 lib_generic/libgeneric.a(vsprintf.o)
 .debug_ranges  0x0000000000001b10      0x588 lib_generic/libgeneric.a(zlib.o)
 .debug_ranges  0x0000000000002098       0x58 board/mensa/libmensa.a(mensa.o)
 .debug_ranges  0x00000000000020f0       0xd0 board/mensa/libmensa.a(flash.o)
 .debug_ranges  0x00000000000021c0       0x28 cpu/mips/libmips.a(jz_serial.o)
 .debug_ranges  0x00000000000021e8      0x200 cpu/mips/libmips.a(jz4775.o)
 .debug_ranges  0x00000000000023e8       0x20 cpu/mips/libmips.a(jz4775_nand.o)
 .debug_ranges  0x0000000000002408      0x270 cpu/mips/libmips.a(jz4775_eth.o)
 .debug_ranges  0x0000000000002678      0x490 cpu/mips/libmips.a(synopGMAC_Dev.o)
 .debug_ranges  0x0000000000002b08      0x2a8 cpu/mips/libmips.a(jz4775_ddr.o)
 .debug_ranges  0x0000000000002db0     0x1668 cpu/mips/libmips.a(jz4775_lcd.o)
 .debug_ranges  0x0000000000004418      0x220 cpu/mips/libmips.a(jz_ddr3_init.o)
 .debug_ranges  0x0000000000004638      0x118 lib_mips/libmips.a(mips_linux.o)
 .debug_ranges  0x0000000000004750       0x18 drivers/nand/libnand.a(nand.o)
 .debug_ranges  0x0000000000004768      0x100 drivers/nand/libnand.a(nand_util.o)
 .debug_ranges  0x0000000000004868      0x348 drivers/nand/libnand.a(nand_base_jz4775.o)
 .debug_ranges  0x0000000000004bb0      0x1a8 drivers/nand/libnand.a(nand_bbt.o)
 .debug_ranges  0x0000000000004d58      0x190 /usr/local/mips-tools/mipseltools-gcc412-glibc261/bin/../lib/gcc/mipsel-linux/4.1.2/libgcc.a(_udivdi3.o)

.debug_abbrev.9
                0x0000000000000000      0x229
 .debug_abbrev  0x0000000000000000      0x229 net/libnet.a(tftp.o)

.debug_info.10  0x0000000000000000      0x625
 .debug_info    0x0000000000000000      0x625 net/libnet.a(tftp.o)

.debug_line.11  0x0000000000000000      0x35e
 .debug_line    0x0000000000000000      0x35e net/libnet.a(tftp.o)

.debug_aranges.12
                0x0000000000000000       0x20
 .debug_aranges
                0x0000000000000000       0x20 net/libnet.a(tftp.o)

.debug_abbrev.13
                0x0000000000000000      0x362
 .debug_abbrev  0x0000000000000000      0x362 net/libnet.a(bootp.o)

.debug_info.14  0x0000000000000000      0xc3b
 .debug_info    0x0000000000000000      0xc3b net/libnet.a(bootp.o)

.debug_line.15  0x0000000000000000      0x46c
 .debug_line    0x0000000000000000      0x46c net/libnet.a(bootp.o)

.debug_aranges.16
                0x0000000000000000       0x20
 .debug_aranges
                0x0000000000000000       0x20 net/libnet.a(bootp.o)

.debug_abbrev.17
                0x0000000000000000      0x16d
 .debug_abbrev  0x0000000000000000      0x16d net/libnet.a(rarp.o)

.debug_info.18  0x0000000000000000      0x2d7
 .debug_info    0x0000000000000000      0x2d7 net/libnet.a(rarp.o)

.debug_line.19  0x0000000000000000      0x15b
 .debug_line    0x0000000000000000      0x15b net/libnet.a(rarp.o)

.debug_aranges.20
                0x0000000000000000       0x20
 .debug_aranges
                0x0000000000000000       0x20 net/libnet.a(rarp.o)

.debug_abbrev.21
                0x0000000000000000      0x2f2
 .debug_abbrev  0x0000000000000000      0x2f2 net/libnet.a(eth.o)

.debug_info.22  0x0000000000000000      0x7c7
 .debug_info    0x0000000000000000      0x7c7 net/libnet.a(eth.o)

.debug_line.23  0x0000000000000000      0x23e
 .debug_line    0x0000000000000000      0x23e net/libnet.a(eth.o)

.debug_aranges.24
                0x0000000000000000       0x20
 .debug_aranges
                0x0000000000000000       0x20 net/libnet.a(eth.o)

.debug_abbrev.25
                0x0000000000000000      0x37b
 .debug_abbrev  0x0000000000000000      0x37b net/libnet.a(nfs.o)

.debug_info.26  0x0000000000000000      0xdab
 .debug_info    0x0000000000000000      0xdab net/libnet.a(nfs.o)

.debug_line.27  0x0000000000000000      0x4db
 .debug_line    0x0000000000000000      0x4db net/libnet.a(nfs.o)

.debug_aranges.28
                0x0000000000000000       0x20
 .debug_aranges
                0x0000000000000000       0x20 net/libnet.a(nfs.o)

.debug_abbrev.29
                0x0000000000000000      0x1e6
 .debug_abbrev  0x0000000000000000      0x1e6 post/ingenic/libingenic_post.a(jz_post.o)

.debug_info.30  0x0000000000000000      0x5d4
 .debug_info    0x0000000000000000      0x5d4 post/ingenic/libingenic_post.a(jz_post.o)

.debug_line.31  0x0000000000000000      0x26b
 .debug_line    0x0000000000000000      0x26b post/ingenic/libingenic_post.a(jz_post.o)

.debug_aranges.32
                0x0000000000000000       0x20
 .debug_aranges
                0x0000000000000000       0x20 post/ingenic/libingenic_post.a(jz_post.o)

.debug_abbrev.33
                0x0000000000000000       0xa5
 .debug_abbrev  0x0000000000000000       0xa5 post/ingenic/libingenic_post.a(jz_tests.o)

.debug_info.34  0x0000000000000000      0x15b
 .debug_info    0x0000000000000000      0x15b post/ingenic/libingenic_post.a(jz_tests.o)

.debug_line.35  0x0000000000000000       0x6b
 .debug_line    0x0000000000000000       0x6b post/ingenic/libingenic_post.a(jz_tests.o)

.debug_abbrev.36
                0x0000000000000000      0x2eb
 .debug_abbrev  0x0000000000000000      0x2eb post/ingenic/libingenic_post.a(memory.o)

.debug_info.37  0x0000000000000000      0xc54
 .debug_info    0x0000000000000000      0xc54 post/ingenic/libingenic_post.a(memory.o)

.debug_line.38  0x0000000000000000      0x3a6
 .debug_line    0x0000000000000000      0x3a6 post/ingenic/libingenic_post.a(memory.o)

.debug_aranges.39
                0x0000000000000000       0x20
 .debug_aranges
                0x0000000000000000       0x20 post/ingenic/libingenic_post.a(memory.o)

.debug_abbrev.40
                0x0000000000000000      0x26c
 .debug_abbrev  0x0000000000000000      0x26c common/libcommon.a(main.o)

.debug_info.41  0x0000000000000000      0x70f
 .debug_info    0x0000000000000000      0x70f common/libcommon.a(main.o)

.debug_line.42  0x0000000000000000      0x354
 .debug_line    0x0000000000000000      0x354 common/libcommon.a(main.o)

.debug_aranges.43
                0x0000000000000000       0x20
 .debug_aranges
                0x0000000000000000       0x20 common/libcommon.a(main.o)

.debug_abbrev.44
                0x0000000000000000      0x157
 .debug_abbrev  0x0000000000000000      0x157 common/libcommon.a(cmd_autoscript.o)

.debug_info.45  0x0000000000000000      0x3df
 .debug_info    0x0000000000000000      0x3df common/libcommon.a(cmd_autoscript.o)

.debug_line.46  0x0000000000000000      0x1e2
 .debug_line    0x0000000000000000      0x1e2 common/libcommon.a(cmd_autoscript.o)

.debug_aranges.47
                0x0000000000000000       0x20
 .debug_aranges
                0x0000000000000000       0x20 common/libcommon.a(cmd_autoscript.o)

.debug_abbrev.48
                0x0000000000000000      0x11a
 .debug_abbrev  0x0000000000000000      0x11a common/libcommon.a(cmd_bdinfo.o)

.debug_info.49  0x0000000000000000      0x3c0
 .debug_info    0x0000000000000000      0x3c0 common/libcommon.a(cmd_bdinfo.o)

.debug_line.50  0x0000000000000000      0x141
 .debug_line    0x0000000000000000      0x141 common/libcommon.a(cmd_bdinfo.o)

.debug_aranges.51
                0x0000000000000000       0x20
 .debug_aranges
                0x0000000000000000       0x20 common/libcommon.a(cmd_bdinfo.o)

.debug_abbrev.52
                0x0000000000000000       0xd9
 .debug_abbrev  0x0000000000000000       0xd9 common/libcommon.a(cmd_boot.o)

.debug_info.53  0x0000000000000000      0x1dc
 .debug_info    0x0000000000000000      0x1dc common/libcommon.a(cmd_boot.o)

.debug_line.54  0x0000000000000000       0xea
 .debug_line    0x0000000000000000       0xea common/libcommon.a(cmd_boot.o)

.debug_aranges.55
                0x0000000000000000       0x20
 .debug_aranges
                0x0000000000000000       0x20 common/libcommon.a(cmd_boot.o)

.debug_abbrev.56
                0x0000000000000000      0x35e
 .debug_abbrev  0x0000000000000000      0x35e common/libcommon.a(cmd_bootm.o)

.debug_info.57  0x0000000000000000      0xfff
 .debug_info    0x0000000000000000      0xfff common/libcommon.a(cmd_bootm.o)

.debug_line.58  0x0000000000000000      0x46c
 .debug_line    0x0000000000000000      0x46c common/libcommon.a(cmd_bootm.o)

.debug_aranges.59
                0x0000000000000000       0x20
 .debug_aranges
                0x0000000000000000       0x20 common/libcommon.a(cmd_bootm.o)

.debug_abbrev.60
                0x0000000000000000      0x146
 .debug_abbrev  0x0000000000000000      0x146 common/libcommon.a(cmd_console.o)

.debug_info.61  0x0000000000000000      0x384
 .debug_info    0x0000000000000000      0x384 common/libcommon.a(cmd_console.o)

.debug_line.62  0x0000000000000000       0xb4
 .debug_line    0x0000000000000000       0xb4 common/libcommon.a(cmd_console.o)

.debug_aranges.63
                0x0000000000000000       0x20
 .debug_aranges
                0x0000000000000000       0x20 common/libcommon.a(cmd_console.o)

.debug_abbrev.64
                0x0000000000000000      0x12f
 .debug_abbrev  0x0000000000000000      0x12f common/libcommon.a(cmd_diag.o)

.debug_info.65  0x0000000000000000      0x20a
 .debug_info    0x0000000000000000      0x20a common/libcommon.a(cmd_diag.o)

.debug_line.66  0x0000000000000000      0x104
 .debug_line    0x0000000000000000      0x104 common/libcommon.a(cmd_diag.o)

.debug_aranges.67
                0x0000000000000000       0x20
 .debug_aranges
                0x0000000000000000       0x20 common/libcommon.a(cmd_diag.o)

.debug_abbrev.68
                0x0000000000000000      0x21d
 .debug_abbrev  0x0000000000000000      0x21d common/libcommon.a(cmd_flash.o)

.debug_info.69  0x0000000000000000      0x9c3
 .debug_info    0x0000000000000000      0x9c3 common/libcommon.a(cmd_flash.o)

.debug_line.70  0x0000000000000000      0x39f
 .debug_line    0x0000000000000000      0x39f common/libcommon.a(cmd_flash.o)

.debug_aranges.71
                0x0000000000000000       0x20
 .debug_aranges
                0x0000000000000000       0x20 common/libcommon.a(cmd_flash.o)

.debug_abbrev.72
                0x0000000000000000      0x212
 .debug_abbrev  0x0000000000000000      0x212 common/libcommon.a(cmd_itest.o)

.debug_info.73  0x0000000000000000      0x526
 .debug_info    0x0000000000000000      0x526 common/libcommon.a(cmd_itest.o)

.debug_line.74  0x0000000000000000      0x1b1
 .debug_line    0x0000000000000000      0x1b1 common/libcommon.a(cmd_itest.o)

.debug_aranges.75
                0x0000000000000000       0x20
 .debug_aranges
                0x0000000000000000       0x20 common/libcommon.a(cmd_itest.o)

.debug_abbrev.76
                0x0000000000000000      0x3e9
 .debug_abbrev  0x0000000000000000      0x3e9 common/libcommon.a(cmd_load.o)

.debug_info.77  0x0000000000000000      0xe33
 .debug_info    0x0000000000000000      0xe33 common/libcommon.a(cmd_load.o)

.debug_line.78  0x0000000000000000      0x4c3
 .debug_line    0x0000000000000000      0x4c3 common/libcommon.a(cmd_load.o)

.debug_aranges.79
                0x0000000000000000       0x20
 .debug_aranges
                0x0000000000000000       0x20 common/libcommon.a(cmd_load.o)

.debug_abbrev.80
                0x0000000000000000      0x1f8
 .debug_abbrev  0x0000000000000000      0x1f8 common/libcommon.a(cmd_mem.o)

.debug_info.81  0x0000000000000000      0xb0f
 .debug_info    0x0000000000000000      0xb0f common/libcommon.a(cmd_mem.o)

.debug_line.82  0x0000000000000000      0x380
 .debug_line    0x0000000000000000      0x380 common/libcommon.a(cmd_mem.o)

.debug_aranges.83
                0x0000000000000000       0x20
 .debug_aranges
                0x0000000000000000       0x20 common/libcommon.a(cmd_mem.o)

.debug_abbrev.84
                0x0000000000000000       0xca
 .debug_abbrev  0x0000000000000000       0xca common/libcommon.a(cmd_misc.o)

.debug_info.85  0x0000000000000000      0x1bc
 .debug_info    0x0000000000000000      0x1bc common/libcommon.a(cmd_misc.o)

.debug_line.86  0x0000000000000000       0xdf
 .debug_line    0x0000000000000000       0xdf common/libcommon.a(cmd_misc.o)

.debug_aranges.87
                0x0000000000000000       0x20
 .debug_aranges
                0x0000000000000000       0x20 common/libcommon.a(cmd_misc.o)

.debug_abbrev.88
                0x0000000000000000      0x2d7
 .debug_abbrev  0x0000000000000000      0x2d7 common/libcommon.a(cmd_msc.o)

.debug_info.89  0x0000000000000000      0x7db
 .debug_info    0x0000000000000000      0x7db common/libcommon.a(cmd_msc.o)

.debug_line.90  0x0000000000000000      0x35a
 .debug_line    0x0000000000000000      0x35a common/libcommon.a(cmd_msc.o)

.debug_aranges.91
                0x0000000000000000       0x20
 .debug_aranges
                0x0000000000000000       0x20 common/libcommon.a(cmd_msc.o)

.debug_abbrev.92
                0x0000000000000000      0x36f
 .debug_abbrev  0x0000000000000000      0x36f common/libcommon.a(cmd_nand.o)

.debug_info.93  0x0000000000000000     0x1f8b
 .debug_info    0x0000000000000000     0x1f8b common/libcommon.a(cmd_nand.o)

.debug_line.94  0x0000000000000000      0x73b
 .debug_line    0x0000000000000000      0x73b common/libcommon.a(cmd_nand.o)

.debug_aranges.95
                0x0000000000000000       0x20
 .debug_aranges
                0x0000000000000000       0x20 common/libcommon.a(cmd_nand.o)

.debug_abbrev.96
                0x0000000000000000      0x22d
 .debug_abbrev  0x0000000000000000      0x22d common/libcommon.a(cmd_net.o)

.debug_info.97  0x0000000000000000      0x659
 .debug_info    0x0000000000000000      0x659 common/libcommon.a(cmd_net.o)

.debug_line.98  0x0000000000000000      0x1ec
 .debug_line    0x0000000000000000      0x1ec common/libcommon.a(cmd_net.o)

.debug_aranges.99
                0x0000000000000000       0x20
 .debug_aranges
                0x0000000000000000       0x20 common/libcommon.a(cmd_net.o)

.debug_abbrev.100
                0x0000000000000000      0x2bd
 .debug_abbrev  0x0000000000000000      0x2bd common/libcommon.a(cmd_nvedit.o)

.debug_info.101
                0x0000000000000000      0xcd8
 .debug_info    0x0000000000000000      0xcd8 common/libcommon.a(cmd_nvedit.o)

.debug_line.102
                0x0000000000000000      0x439
 .debug_line    0x0000000000000000      0x439 common/libcommon.a(cmd_nvedit.o)

.debug_aranges.103
                0x0000000000000000       0x20
 .debug_aranges
                0x0000000000000000       0x20 common/libcommon.a(cmd_nvedit.o)

.debug_abbrev.104
                0x0000000000000000      0x27e
 .debug_abbrev  0x0000000000000000      0x27e common/libcommon.a(cmd_ftest.o)

.debug_info.105
                0x0000000000000000     0x1232
 .debug_info    0x0000000000000000     0x1232 common/libcommon.a(cmd_ftest.o)

.debug_line.106
                0x0000000000000000      0x2ea
 .debug_line    0x0000000000000000      0x2ea common/libcommon.a(cmd_ftest.o)

.debug_aranges.107
                0x0000000000000000       0x20
 .debug_aranges
                0x0000000000000000       0x20 common/libcommon.a(cmd_ftest.o)

.debug_abbrev.108
                0x0000000000000000      0x1f6
 .debug_abbrev  0x0000000000000000      0x1f6 common/libcommon.a(command.o)

.debug_info.109
                0x0000000000000000      0x526
 .debug_info    0x0000000000000000      0x526 common/libcommon.a(command.o)

.debug_line.110
                0x0000000000000000      0x1ec
 .debug_line    0x0000000000000000      0x1ec common/libcommon.a(command.o)

.debug_aranges.111
                0x0000000000000000       0x20
 .debug_aranges
                0x0000000000000000       0x20 common/libcommon.a(command.o)

.debug_abbrev.112
                0x0000000000000000      0x316
 .debug_abbrev  0x0000000000000000      0x316 common/libcommon.a(console.o)

.debug_info.113
                0x0000000000000000      0x98e
 .debug_info    0x0000000000000000      0x98e common/libcommon.a(console.o)

.debug_line.114
                0x0000000000000000      0x2f5
 .debug_line    0x0000000000000000      0x2f5 common/libcommon.a(console.o)

.debug_aranges.115
                0x0000000000000000       0x20
 .debug_aranges
                0x0000000000000000       0x20 common/libcommon.a(console.o)

.debug_abbrev.116
                0x0000000000000000      0x1d2
 .debug_abbrev  0x0000000000000000      0x1d2 common/libcommon.a(devices.o)

.debug_info.117
                0x0000000000000000      0x555
 .debug_info    0x0000000000000000      0x555 common/libcommon.a(devices.o)

.debug_line.118
                0x0000000000000000      0x17c
 .debug_line    0x0000000000000000      0x17c common/libcommon.a(devices.o)

.debug_aranges.119
                0x0000000000000000       0x20
 .debug_aranges
                0x0000000000000000       0x20 common/libcommon.a(devices.o)

.debug_abbrev.120
                0x0000000000000000      0x23f
 .debug_abbrev  0x0000000000000000      0x23f common/libcommon.a(dlmalloc.o)

.debug_info.121
                0x0000000000000000      0xc73
 .debug_info    0x0000000000000000      0xc73 common/libcommon.a(dlmalloc.o)

.debug_line.122
                0x0000000000000000      0x49a
 .debug_line    0x0000000000000000      0x49a common/libcommon.a(dlmalloc.o)

.debug_aranges.123
                0x0000000000000000       0x20
 .debug_aranges
                0x0000000000000000       0x20 common/libcommon.a(dlmalloc.o)

.debug_abbrev.124
                0x0000000000000000      0x176
 .debug_abbrev  0x0000000000000000      0x176 common/libcommon.a(env_common.o)

.debug_info.125
                0x0000000000000000      0x3d6
 .debug_info    0x0000000000000000      0x3d6 common/libcommon.a(env_common.o)

.debug_line.126
                0x0000000000000000      0x130
 .debug_line    0x0000000000000000      0x130 common/libcommon.a(env_common.o)

.debug_aranges.127
                0x0000000000000000       0x20
 .debug_aranges
                0x0000000000000000       0x20 common/libcommon.a(env_common.o)

.debug_abbrev.128
                0x0000000000000000      0x185
 .debug_abbrev  0x0000000000000000      0x185 common/libcommon.a(env_msc.o)

.debug_info.129
                0x0000000000000000      0x3bd
 .debug_info    0x0000000000000000      0x3bd common/libcommon.a(env_msc.o)

.debug_line.130
                0x0000000000000000      0x16b
 .debug_line    0x0000000000000000      0x16b common/libcommon.a(env_msc.o)

.debug_aranges.131
                0x0000000000000000       0x20
 .debug_aranges
                0x0000000000000000       0x20 common/libcommon.a(env_msc.o)

.debug_abbrev.132
                0x0000000000000000       0xf5
 .debug_abbrev  0x0000000000000000       0xf5 common/libcommon.a(exports.o)

.debug_info.133
                0x0000000000000000      0x294
 .debug_info    0x0000000000000000      0x294 common/libcommon.a(exports.o)

.debug_line.134
                0x0000000000000000       0xac
 .debug_line    0x0000000000000000       0xac common/libcommon.a(exports.o)

.debug_aranges.135
                0x0000000000000000       0x20
 .debug_aranges
                0x0000000000000000       0x20 common/libcommon.a(exports.o)

.debug_abbrev.136
                0x0000000000000000      0x17c
 .debug_abbrev  0x0000000000000000      0x17c common/libcommon.a(flash.o)

.debug_info.137
                0x0000000000000000      0x30d
 .debug_info    0x0000000000000000      0x30d common/libcommon.a(flash.o)

.debug_line.138
                0x0000000000000000      0x15d
 .debug_line    0x0000000000000000      0x15d common/libcommon.a(flash.o)

.debug_aranges.139
                0x0000000000000000       0x20
 .debug_aranges
                0x0000000000000000       0x20 common/libcommon.a(flash.o)

.debug_abbrev.140
                0x0000000000000000      0x335
 .debug_abbrev  0x0000000000000000      0x335 common/libcommon.a(lcd.o)

.debug_info.141
                0x0000000000000000      0xbb6
 .debug_info    0x0000000000000000      0xbb6 common/libcommon.a(lcd.o)

.debug_line.142
                0x0000000000000000      0x29c
 .debug_line    0x0000000000000000      0x29c common/libcommon.a(lcd.o)

.debug_aranges.143
                0x0000000000000000       0x20
 .debug_aranges
                0x0000000000000000       0x20 common/libcommon.a(lcd.o)

.debug_abbrev.144
                0x0000000000000000      0x20f
 .debug_abbrev  0x0000000000000000      0x20f common/libcommon.a(lists.o)

.debug_info.145
                0x0000000000000000      0x554
 .debug_info    0x0000000000000000      0x554 common/libcommon.a(lists.o)

.debug_line.146
                0x0000000000000000      0x157
 .debug_line    0x0000000000000000      0x157 common/libcommon.a(lists.o)

.debug_aranges.147
                0x0000000000000000       0x20
 .debug_aranges
                0x0000000000000000       0x20 common/libcommon.a(lists.o)

.debug_abbrev.148
                0x0000000000000000       0xdb
 .debug_abbrev  0x0000000000000000       0xdb common/libcommon.a(s_record.o)

.debug_info.149
                0x0000000000000000      0x19f
 .debug_info    0x0000000000000000      0x19f common/libcommon.a(s_record.o)

.debug_line.150
                0x0000000000000000      0x119
 .debug_line    0x0000000000000000      0x119 common/libcommon.a(s_record.o)

.debug_aranges.151
                0x0000000000000000       0x20
 .debug_aranges
                0x0000000000000000       0x20 common/libcommon.a(s_record.o)

.debug_abbrev.152
                0x0000000000000000      0x2c0
 .debug_abbrev  0x0000000000000000      0x2c0 common/libcommon.a(xyzModem.o)

.debug_info.153
                0x0000000000000000      0x69b
 .debug_info    0x0000000000000000      0x69b common/libcommon.a(xyzModem.o)

.debug_line.154
                0x0000000000000000      0x30d
 .debug_line    0x0000000000000000      0x30d common/libcommon.a(xyzModem.o)

.debug_aranges.155
                0x0000000000000000       0x20
 .debug_aranges
                0x0000000000000000       0x20 common/libcommon.a(xyzModem.o)

.debug_abbrev.156
                0x0000000000000000       0xb1
 .debug_abbrev  0x0000000000000000       0xb1 common/libcommon.a(crc16.o)

.debug_info.157
                0x0000000000000000      0x110
 .debug_info    0x0000000000000000      0x110 common/libcommon.a(crc16.o)

.debug_line.158
                0x0000000000000000       0xc7
 .debug_line    0x0000000000000000       0xc7 common/libcommon.a(crc16.o)

.debug_aranges.159
                0x0000000000000000       0x20
 .debug_aranges
                0x0000000000000000       0x20 common/libcommon.a(crc16.o)

.debug_abbrev.160
                0x0000000000000000       0xa2
 .debug_abbrev  0x0000000000000000       0xa2 lib_generic/libgeneric.a(crc32.o)

.debug_info.161
                0x0000000000000000      0x183
 .debug_info    0x0000000000000000      0x183 lib_generic/libgeneric.a(crc32.o)

.debug_line.162
                0x0000000000000000       0xe4
 .debug_line    0x0000000000000000       0xe4 lib_generic/libgeneric.a(crc32.o)

.debug_aranges.163
                0x0000000000000000       0x20
 .debug_aranges
                0x0000000000000000       0x20 lib_generic/libgeneric.a(crc32.o)

.debug_abbrev.164
                0x0000000000000000       0xcf
 .debug_abbrev  0x0000000000000000       0xcf lib_generic/libgeneric.a(display_options.o)

.debug_info.165
                0x0000000000000000      0x12a
 .debug_info    0x0000000000000000      0x12a lib_generic/libgeneric.a(display_options.o)

.debug_line.166
                0x0000000000000000       0xa9
 .debug_line    0x0000000000000000       0xa9 lib_generic/libgeneric.a(display_options.o)

.debug_aranges.167
                0x0000000000000000       0x20
 .debug_aranges
                0x0000000000000000       0x20 lib_generic/libgeneric.a(display_options.o)

.debug_abbrev.168
                0x0000000000000000      0x227
 .debug_abbrev  0x0000000000000000      0x227 lib_generic/libgeneric.a(string.o)

.debug_info.169
                0x0000000000000000      0x743
 .debug_info    0x0000000000000000      0x743 lib_generic/libgeneric.a(string.o)

.debug_line.170
                0x0000000000000000      0x1d1
 .debug_line    0x0000000000000000      0x1d1 lib_generic/libgeneric.a(string.o)

.debug_aranges.171
                0x0000000000000000       0x20
 .debug_aranges
                0x0000000000000000       0x20 lib_generic/libgeneric.a(string.o)

.debug_abbrev.172
                0x0000000000000000      0x211
 .debug_abbrev  0x0000000000000000      0x211 lib_generic/libgeneric.a(vsprintf.o)

.debug_info.173
                0x0000000000000000      0x45b
 .debug_info    0x0000000000000000      0x45b lib_generic/libgeneric.a(vsprintf.o)

.debug_line.174
                0x0000000000000000      0x27e
 .debug_line    0x0000000000000000      0x27e lib_generic/libgeneric.a(vsprintf.o)

.debug_aranges.175
                0x0000000000000000       0x20
 .debug_aranges
                0x0000000000000000       0x20 lib_generic/libgeneric.a(vsprintf.o)

.debug_abbrev.176
                0x0000000000000000      0x301
 .debug_abbrev  0x0000000000000000      0x301 lib_generic/libgeneric.a(zlib.o)

.debug_info.177
                0x0000000000000000     0x17b3
 .debug_info    0x0000000000000000     0x17b3 lib_generic/libgeneric.a(zlib.o)

.debug_line.178
                0x0000000000000000      0x824
 .debug_line    0x0000000000000000      0x824 lib_generic/libgeneric.a(zlib.o)

.debug_aranges.179
                0x0000000000000000       0x20
 .debug_aranges
                0x0000000000000000       0x20 lib_generic/libgeneric.a(zlib.o)

.debug_abbrev.180
                0x0000000000000000       0x42
 .debug_abbrev  0x0000000000000000       0x42 lib_generic/libgeneric.a(ctype.o)

.debug_info.181
                0x0000000000000000       0x56
 .debug_info    0x0000000000000000       0x56 lib_generic/libgeneric.a(ctype.o)

.debug_line.182
                0x0000000000000000       0x28
 .debug_line    0x0000000000000000       0x28 lib_generic/libgeneric.a(ctype.o)

.debug_abbrev.183
                0x0000000000000000      0x1b9
 .debug_abbrev  0x0000000000000000      0x1b9 board/mensa/libmensa.a(mensa.o)

.debug_info.184
                0x0000000000000000      0x3a0
 .debug_info    0x0000000000000000      0x3a0 board/mensa/libmensa.a(mensa.o)

.debug_line.185
                0x0000000000000000       0xe2
 .debug_line    0x0000000000000000       0xe2 board/mensa/libmensa.a(mensa.o)

.debug_aranges.186
                0x0000000000000000       0x20
 .debug_aranges
                0x0000000000000000       0x20 board/mensa/libmensa.a(mensa.o)

.debug_abbrev.187
                0x0000000000000000      0x22f
 .debug_abbrev  0x0000000000000000      0x22f board/mensa/libmensa.a(flash.o)

.debug_info.188
                0x0000000000000000      0x47f
 .debug_info    0x0000000000000000      0x47f board/mensa/libmensa.a(flash.o)

.debug_line.189
                0x0000000000000000      0x225
 .debug_line    0x0000000000000000      0x225 board/mensa/libmensa.a(flash.o)

.debug_aranges.190
                0x0000000000000000       0x20
 .debug_aranges
                0x0000000000000000       0x20 board/mensa/libmensa.a(flash.o)

.debug_abbrev.191
                0x0000000000000000      0x178
 .debug_abbrev  0x0000000000000000      0x178 cpu/mips/libmips.a(jz_serial.o)

.debug_info.192
                0x0000000000000000      0x340
 .debug_info    0x0000000000000000      0x340 cpu/mips/libmips.a(jz_serial.o)

.debug_line.193
                0x0000000000000000      0x11f
 .debug_line    0x0000000000000000      0x11f cpu/mips/libmips.a(jz_serial.o)

.debug_aranges.194
                0x0000000000000000       0x20
 .debug_aranges
                0x0000000000000000       0x20 cpu/mips/libmips.a(jz_serial.o)

.debug_abbrev.195
                0x0000000000000000      0x148
 .debug_abbrev  0x0000000000000000      0x148 cpu/mips/libmips.a(cpu.o)

.debug_info.196
                0x0000000000000000      0x2cd
 .debug_info    0x0000000000000000      0x2cd cpu/mips/libmips.a(cpu.o)

.debug_line.197
                0x0000000000000000      0x133
 .debug_line    0x0000000000000000      0x133 cpu/mips/libmips.a(cpu.o)

.debug_aranges.198
                0x0000000000000000       0x20
 .debug_aranges
                0x0000000000000000       0x20 cpu/mips/libmips.a(cpu.o)

.debug_abbrev.199
                0x0000000000000000       0x5c
 .debug_abbrev  0x0000000000000000       0x5c cpu/mips/libmips.a(interrupts.o)

.debug_info.200
                0x0000000000000000       0xac
 .debug_info    0x0000000000000000       0xac cpu/mips/libmips.a(interrupts.o)

.debug_line.201
                0x0000000000000000       0x3d
 .debug_line    0x0000000000000000       0x3d cpu/mips/libmips.a(interrupts.o)

.debug_aranges.202
                0x0000000000000000       0x20
 .debug_aranges
                0x0000000000000000       0x20 cpu/mips/libmips.a(interrupts.o)

.debug_abbrev.203
                0x0000000000000000      0x371
 .debug_abbrev  0x0000000000000000      0x371 cpu/mips/libmips.a(jz4775.o)

.debug_info.204
                0x0000000000000000      0x7fe
 .debug_info    0x0000000000000000      0x7fe cpu/mips/libmips.a(jz4775.o)

.debug_line.205
                0x0000000000000000      0x271
 .debug_line    0x0000000000000000      0x271 cpu/mips/libmips.a(jz4775.o)

.debug_aranges.206
                0x0000000000000000       0x20
 .debug_aranges
                0x0000000000000000       0x20 cpu/mips/libmips.a(jz4775.o)

.debug_abbrev.207
                0x0000000000000000      0x285
 .debug_abbrev  0x0000000000000000      0x285 cpu/mips/libmips.a(jz4775_nand.o)

.debug_info.208
                0x0000000000000000      0xe63
 .debug_info    0x0000000000000000      0xe63 cpu/mips/libmips.a(jz4775_nand.o)

.debug_line.209
                0x0000000000000000      0x229
 .debug_line    0x0000000000000000      0x229 cpu/mips/libmips.a(jz4775_nand.o)

.debug_aranges.210
                0x0000000000000000       0x20
 .debug_aranges
                0x0000000000000000       0x20 cpu/mips/libmips.a(jz4775_nand.o)

.debug_abbrev.211
                0x0000000000000000      0x354
 .debug_abbrev  0x0000000000000000      0x354 cpu/mips/libmips.a(jz4775_eth.o)

.debug_info.212
                0x0000000000000000      0xeb8
 .debug_info    0x0000000000000000      0xeb8 cpu/mips/libmips.a(jz4775_eth.o)

.debug_line.213
                0x0000000000000000      0x3de
 .debug_line    0x0000000000000000      0x3de cpu/mips/libmips.a(jz4775_eth.o)

.debug_aranges.214
                0x0000000000000000       0x20
 .debug_aranges
                0x0000000000000000       0x20 cpu/mips/libmips.a(jz4775_eth.o)

.debug_abbrev.215
                0x0000000000000000      0x315
 .debug_abbrev  0x0000000000000000      0x315 cpu/mips/libmips.a(synopGMAC_Dev.o)

.debug_info.216
                0x0000000000000000     0x577c
 .debug_info    0x0000000000000000     0x577c cpu/mips/libmips.a(synopGMAC_Dev.o)

.debug_line.217
                0x0000000000000000      0xeee
 .debug_line    0x0000000000000000      0xeee cpu/mips/libmips.a(synopGMAC_Dev.o)

.debug_aranges.218
                0x0000000000000000       0x20
 .debug_aranges
                0x0000000000000000       0x20 cpu/mips/libmips.a(synopGMAC_Dev.o)

.debug_abbrev.219
                0x0000000000000000      0x203
 .debug_abbrev  0x0000000000000000      0x203 cpu/mips/libmips.a(jz4775_ddr.o)

.debug_info.220
                0x0000000000000000      0x78d
 .debug_info    0x0000000000000000      0x78d cpu/mips/libmips.a(jz4775_ddr.o)

.debug_line.221
                0x0000000000000000      0x2c0
 .debug_line    0x0000000000000000      0x2c0 cpu/mips/libmips.a(jz4775_ddr.o)

.debug_aranges.222
                0x0000000000000000       0x20
 .debug_aranges
                0x0000000000000000       0x20 cpu/mips/libmips.a(jz4775_ddr.o)

.debug_abbrev.223
                0x0000000000000000      0x279
 .debug_abbrev  0x0000000000000000      0x279 cpu/mips/libmips.a(jz4775_lcd.o)

.debug_info.224
                0x0000000000000000     0x35eb
 .debug_info    0x0000000000000000     0x35eb cpu/mips/libmips.a(jz4775_lcd.o)

.debug_line.225
                0x0000000000000000      0x33c
 .debug_line    0x0000000000000000      0x33c cpu/mips/libmips.a(jz4775_lcd.o)

.debug_aranges.226
                0x0000000000000000       0x20
 .debug_aranges
                0x0000000000000000       0x20 cpu/mips/libmips.a(jz4775_lcd.o)

.debug_abbrev.227
                0x0000000000000000       0xd6
 .debug_abbrev  0x0000000000000000       0xd6 cpu/mips/libmips.a(jz_ddr3_init.o)

.debug_info.228
                0x0000000000000000      0x448
 .debug_info    0x0000000000000000      0x448 cpu/mips/libmips.a(jz_ddr3_init.o)

.debug_line.229
                0x0000000000000000      0x12e
 .debug_line    0x0000000000000000      0x12e cpu/mips/libmips.a(jz_ddr3_init.o)

.debug_aranges.230
                0x0000000000000000       0x20
 .debug_aranges
                0x0000000000000000       0x20 cpu/mips/libmips.a(jz_ddr3_init.o)

.debug_abbrev.231
                0x0000000000000000      0x259
 .debug_abbrev  0x0000000000000000      0x259 lib_mips/libmips.a(mips_linux.o)

.debug_info.232
                0x0000000000000000      0x7c9
 .debug_info    0x0000000000000000      0x7c9 lib_mips/libmips.a(mips_linux.o)

.debug_line.233
                0x0000000000000000      0x2ec
 .debug_line    0x0000000000000000      0x2ec lib_mips/libmips.a(mips_linux.o)

.debug_aranges.234
                0x0000000000000000       0x20
 .debug_aranges
                0x0000000000000000       0x20 lib_mips/libmips.a(mips_linux.o)

.debug_abbrev.235
                0x0000000000000000      0x1a5
 .debug_abbrev  0x0000000000000000      0x1a5 drivers/nand/libnand.a(nand.o)

.debug_info.236
                0x0000000000000000      0xc99
 .debug_info    0x0000000000000000      0xc99 drivers/nand/libnand.a(nand.o)

.debug_line.237
                0x0000000000000000      0x18a
 .debug_line    0x0000000000000000      0x18a drivers/nand/libnand.a(nand.o)

.debug_aranges.238
                0x0000000000000000       0x20
 .debug_aranges
                0x0000000000000000       0x20 drivers/nand/libnand.a(nand.o)

.debug_abbrev.239
                0x0000000000000000      0x247
 .debug_abbrev  0x0000000000000000      0x247 drivers/nand/libnand.a(nand_util.o)

.debug_info.240
                0x0000000000000000     0x147b
 .debug_info    0x0000000000000000     0x147b drivers/nand/libnand.a(nand_util.o)

.debug_line.241
                0x0000000000000000      0x522
 .debug_line    0x0000000000000000      0x522 drivers/nand/libnand.a(nand_util.o)

.debug_aranges.242
                0x0000000000000000       0x20
 .debug_aranges
                0x0000000000000000       0x20 drivers/nand/libnand.a(nand_util.o)

.debug_abbrev.243
                0x0000000000000000      0x3cf
 .debug_abbrev  0x0000000000000000      0x3cf drivers/nand/libnand.a(nand_base_jz4775.o)

.debug_info.244
                0x0000000000000000     0x2889
 .debug_info    0x0000000000000000     0x2889 drivers/nand/libnand.a(nand_base_jz4775.o)

.debug_line.245
                0x0000000000000000      0xc3c
 .debug_line    0x0000000000000000      0xc3c drivers/nand/libnand.a(nand_base_jz4775.o)

.debug_aranges.246
                0x0000000000000000       0x20
 .debug_aranges
                0x0000000000000000       0x20 drivers/nand/libnand.a(nand_base_jz4775.o)

.debug_abbrev.247
                0x0000000000000000       0xaa
 .debug_abbrev  0x0000000000000000       0xaa drivers/nand/libnand.a(nand_ids.o)

.debug_info.248
                0x0000000000000000      0x277
 .debug_info    0x0000000000000000      0x277 drivers/nand/libnand.a(nand_ids.o)

.debug_line.249
                0x0000000000000000      0x108
 .debug_line    0x0000000000000000      0x108 drivers/nand/libnand.a(nand_ids.o)

.debug_aranges.250
                0x0000000000000000       0x20
 .debug_aranges
                0x0000000000000000       0x20 drivers/nand/libnand.a(nand_ids.o)

.debug_abbrev.251
                0x0000000000000000      0x1be
 .debug_abbrev  0x0000000000000000      0x1be drivers/nand/libnand.a(nand_ecc.o)

.debug_info.252
                0x0000000000000000      0x846
 .debug_info    0x0000000000000000      0x846 drivers/nand/libnand.a(nand_ecc.o)

.debug_line.253
                0x0000000000000000      0x1b8
 .debug_line    0x0000000000000000      0x1b8 drivers/nand/libnand.a(nand_ecc.o)

.debug_aranges.254
                0x0000000000000000       0x20
 .debug_aranges
                0x0000000000000000       0x20 drivers/nand/libnand.a(nand_ecc.o)

.debug_abbrev.255
                0x0000000000000000      0x36c
 .debug_abbrev  0x0000000000000000      0x36c drivers/nand/libnand.a(nand_bbt.o)

.debug_info.256
                0x0000000000000000     0x188b
 .debug_info    0x0000000000000000     0x188b drivers/nand/libnand.a(nand_bbt.o)

.debug_line.257
                0x0000000000000000      0x5b3
 .debug_line    0x0000000000000000      0x5b3 drivers/nand/libnand.a(nand_bbt.o)

.debug_aranges.258
                0x0000000000000000       0x20
 .debug_aranges
                0x0000000000000000       0x20 drivers/nand/libnand.a(nand_bbt.o)

.debug_abbrev.259
                0x0000000000000000      0x19e
 .debug_abbrev  0x0000000000000000      0x19e /usr/local/mips-tools/mipseltools-gcc412-glibc261/bin/../lib/gcc/mipsel-linux/4.1.2/libgcc.a(_udivdi3.o)

.debug_info.260
                0x0000000000000000      0x8e0
 .debug_info    0x0000000000000000      0x8e0 /usr/local/mips-tools/mipseltools-gcc412-glibc261/bin/../lib/gcc/mipsel-linux/4.1.2/libgcc.a(_udivdi3.o)

.debug_line.261
                0x0000000000000000      0x1f5
 .debug_line    0x0000000000000000      0x1f5 /usr/local/mips-tools/mipseltools-gcc412-glibc261/bin/../lib/gcc/mipsel-linux/4.1.2/libgcc.a(_udivdi3.o)

.debug_aranges.262
                0x0000000000000000       0x20
 .debug_aranges
                0x0000000000000000       0x20 /usr/local/mips-tools/mipseltools-gcc412-glibc261/bin/../lib/gcc/mipsel-linux/4.1.2/libgcc.a(_udivdi3.o)

.debug_abbrev.263
                0x0000000000000000       0xba
 .debug_abbrev  0x0000000000000000       0xba /usr/local/mips-tools/mipseltools-gcc412-glibc261/bin/../lib/gcc/mipsel-linux/4.1.2/libgcc.a(_clz.o)

.debug_info.264
                0x0000000000000000      0x347
 .debug_info    0x0000000000000000      0x347 /usr/local/mips-tools/mipseltools-gcc412-glibc261/bin/../lib/gcc/mipsel-linux/4.1.2/libgcc.a(_clz.o)

.debug_line.265
                0x0000000000000000      0x12b
 .debug_line    0x0000000000000000      0x12b /usr/local/mips-tools/mipseltools-gcc412-glibc261/bin/../lib/gcc/mipsel-linux/4.1.2/libgcc.a(_clz.o)
